(dp1
S'layout'
p2
(ilayout
Layout
p3
(dp4
S'capsules'
p5
(lp6
(I7
I3
tp7
a(I26
I8
tp8
a(I7
I9
tp9
a(I26
I14
tp10
asS'numGhosts'
p11
I4
sS'food'
p12
(igame
Grid
p13
(dp14
S'CELLS_PER_INT'
p15
I30
sS'width'
p16
I34
sS'data'
p17
(lp18
(lp19
I00
aI00
aI00
aI00
aI00
aI00
aI00
aI00
aI00
aI00
aI00
aI00
aI00
aI00
aI00
aI00
aI00
aI00
aa(lp20
I00
aI00
aI00
aI00
aI00
aI00
aI00
aI00
aI00
aI00
aI00
aI00
aI00
aI00
aI00
aI00
aI01
aI00
aa(lp21
I00
aI00
aI00
aI00
aI00
aI00
aI00
aI01
aI00
aI00
aI00
aI00
aI00
aI00
aI00
aI00
aI01
aI00
aa(lp22
I00
aI00
aI00
aI00
aI00
aI00
aI00
aI00
aI00
aI00
aI00
aI00
aI00
aI00
aI00
aI00
aI00
aI00
aa(lp23
I00
aI00
aI00
aI00
aI00
aI01
aI00
aI00
aI00
aI00
aI01
aI00
aI00
aI00
aI00
aI00
aI01
aI00
aa(lp24
I00
aI00
aI00
aI00
aI00
aI00
aI00
aI00
aI00
aI00
aI01
aI00
aI01
aI00
aI00
aI00
aI01
aI00
aa(lp25
I00
aI00
aI00
aI00
aI00
aI01
aI00
aI00
aI00
aI00
aI00
aI00
aI00
aI00
aI00
aI00
aI00
aI00
aa(lp26
I00
aI00
aI00
aI00
aI00
aI00
aI00
aI00
aI00
aI00
aI00
aI00
aI00
aI00
aI00
aI01
aI01
aI00
aa(lp27
I00
aI00
aI00
aI00
aI00
aI00
aI00
aI01
aI00
aI00
aI00
aI00
aI00
aI00
aI00
aI00
aI00
aI00
aa(lp28
I00
aI00
aI00
aI00
aI00
aI01
aI00
aI00
aI00
aI00
aI00
aI00
aI00
aI00
aI00
aI00
aI00
aI00
aa(lp29
I00
aI01
aI00
aI00
aI00
aI01
aI00
aI00
aI00
aI00
aI00
aI00
aI00
aI00
aI00
aI00
aI00
aI00
aa(lp30
I00
aI00
aI00
aI00
aI00
aI00
aI00
aI00
aI00
aI00
aI00
aI00
aI00
aI00
aI00
aI00
aI00
aI00
aa(lp31
I00
aI00
aI00
aI00
aI01
aI01
aI00
aI01
aI00
aI00
aI01
aI01
aI01
aI00
aI00
aI00
aI01
aI00
aa(lp32
I00
aI00
aI00
aI00
aI00
aI00
aI00
aI00
aI00
aI00
aI00
aI00
aI00
aI00
aI01
aI00
aI00
aI00
aa(lp33
I00
aI00
aI00
aI01
aI01
aI01
aI00
aI00
aI00
aI00
aI01
aI00
aI00
aI00
aI00
aI01
aI01
aI00
aa(lp34
I00
aI00
aI00
aI00
aI00
aI00
aI00
aI00
aI00
aI00
aI00
aI00
aI00
aI00
aI00
aI00
aI00
aI00
aa(lp35
I00
aI00
aI00
aI00
aI00
aI00
aI00
aI00
aI00
aI00
aI00
aI00
aI00
aI00
aI00
aI00
aI00
aI00
aa(lp36
I00
aI00
aI00
aI00
aI00
aI00
aI00
aI00
aI00
aI00
aI00
aI00
aI00
aI00
aI00
aI00
aI00
aI00
aa(lp37
I00
aI00
aI00
aI00
aI00
aI00
aI00
aI00
aI00
aI00
aI00
aI00
aI00
aI00
aI00
aI00
aI00
aI00
aa(lp38
I00
aI01
aI01
aI00
aI00
aI00
aI00
aI01
aI00
aI00
aI00
aI00
aI01
aI01
aI01
aI00
aI00
aI00
aa(lp39
I00
aI00
aI00
aI01
aI00
aI00
aI00
aI00
aI00
aI00
aI00
aI00
aI00
aI00
aI00
aI00
aI00
aI00
aa(lp40
I00
aI01
aI00
aI00
aI00
aI01
aI01
aI01
aI00
aI00
aI01
aI00
aI01
aI01
aI00
aI00
aI00
aI00
aa(lp41
I00
aI00
aI00
aI00
aI00
aI00
aI00
aI00
aI00
aI00
aI00
aI00
aI00
aI00
aI00
aI00
aI00
aI00
aa(lp42
I00
aI00
aI00
aI00
aI00
aI00
aI00
aI00
aI00
aI00
aI00
aI00
aI01
aI00
aI00
aI00
aI01
aI00
aa(lp43
I00
aI00
aI00
aI00
aI00
aI00
aI00
aI00
aI00
aI00
aI00
aI00
aI01
aI00
aI00
aI00
aI00
aI00
aa(lp44
I00
aI00
aI00
aI00
aI00
aI00
aI00
aI00
aI00
aI00
aI01
aI00
aI00
aI00
aI00
aI00
aI00
aI00
aa(lp45
I00
aI01
aI01
aI00
aI00
aI00
aI00
aI00
aI00
aI00
aI00
aI00
aI00
aI00
aI00
aI00
aI00
aI00
aa(lp46
I00
aI00
aI00
aI00
aI00
aI00
aI00
aI00
aI00
aI00
aI00
aI00
aI01
aI00
aI00
aI00
aI00
aI00
aa(lp47
I00
aI01
aI00
aI00
aI00
aI01
aI00
aI01
aI00
aI00
aI00
aI00
aI00
aI00
aI00
aI00
aI00
aI00
aa(lp48
I00
aI01
aI00
aI00
aI00
aI00
aI00
aI01
aI00
aI00
aI00
aI00
aI01
aI00
aI00
aI00
aI00
aI00
aa(lp49
I00
aI00
aI00
aI00
aI00
aI00
aI00
aI00
aI00
aI00
aI00
aI00
aI00
aI00
aI00
aI00
aI00
aI00
aa(lp50
I00
aI01
aI00
aI00
aI00
aI00
aI00
aI00
aI00
aI00
aI01
aI00
aI00
aI00
aI00
aI00
aI00
aI00
aa(lp51
I00
aI01
aI00
aI00
aI00
aI00
aI00
aI00
aI00
aI00
aI00
aI00
aI00
aI00
aI00
aI00
aI00
aI00
aa(lp52
I00
aI00
aI00
aI00
aI00
aI00
aI00
aI00
aI00
aI00
aI00
aI00
aI00
aI00
aI00
aI00
aI00
aI00
aasS'height'
p53
I18
sbsS'agentPositions'
p54
(lp55
(I00
(I1
I2
tp56
tp57
a(I00
(I32
I15
tp58
tp59
a(I00
(I1
I1
tp60
tp61
a(I00
(I32
I16
tp62
tp63
asg53
I18
sg16
I34
sS'walls'
p64
(igame
Grid
p65
(dp66
g15
I30
sg16
I34
sg17
(lp67
(lp68
I01
aI01
aI01
aI01
aI01
aI01
aI01
aI01
aI01
aI01
aI01
aI01
aI01
aI01
aI01
aI01
aI01
aI01
aa(lp69
I01
aI00
aI00
aI00
aI01
aI00
aI00
aI00
aI00
aI00
aI00
aI00
aI01
aI00
aI00
aI00
aI00
aI01
aa(lp70
I01
aI00
aI00
aI00
aI00
aI00
aI00
aI00
aI00
aI00
aI01
aI00
aI00
aI00
aI00
aI01
aI00
aI01
aa(lp71
I01
aI01
aI00
aI01
aI01
aI01
aI00
aI01
aI01
aI01
aI01
aI01
aI01
aI01
aI00
aI01
aI01
aI01
aa(lp72
I01
aI00
aI00
aI00
aI01
aI00
aI00
aI00
aI00
aI01
aI00
aI00
aI00
aI00
aI00
aI00
aI00
aI01
aa(lp73
I01
aI00
aI01
aI00
aI01
aI00
aI01
aI00
aI00
aI01
aI00
aI01
aI00
aI01
aI00
aI01
aI00
aI01
aa(lp74
I01
aI00
aI00
aI00
aI00
aI00
aI00
aI00
aI00
aI01
aI01
aI01
aI01
aI01
aI00
aI01
aI01
aI01
aa(lp75
I01
aI00
aI01
aI00
aI01
aI00
aI01
aI00
aI00
aI00
aI00
aI00
aI00
aI00
aI00
aI00
aI00
aI01
aa(lp76
I01
aI00
aI01
aI00
aI01
aI00
aI01
aI00
aI01
aI01
aI01
aI01
aI01
aI01
aI01
aI01
aI01
aI01
aa(lp77
I01
aI00
aI01
aI00
aI01
aI00
aI01
aI00
aI00
aI00
aI00
aI01
aI00
aI00
aI00
aI00
aI00
aI01
aa(lp78
I01
aI00
aI01
aI00
aI01
aI00
aI01
aI01
aI00
aI01
aI00
aI00
aI00
aI00
aI00
aI00
aI00
aI01
aa(lp79
I01
aI00
aI01
aI00
aI01
aI01
aI01
aI00
aI00
aI01
aI01
aI01
aI01
aI01
aI01
aI00
aI01
aI01
aa(lp80
I01
aI00
aI01
aI00
aI00
aI00
aI01
aI00
aI00
aI01
aI00
aI00
aI00
aI00
aI00
aI00
aI00
aI01
aa(lp81
I01
aI00
aI01
aI01
aI01
aI01
aI01
aI01
aI01
aI01
aI01
aI01
aI01
aI01
aI00
aI01
aI01
aI01
aa(lp82
I01
aI00
aI01
aI00
aI00
aI00
aI01
aI00
aI00
aI00
aI00
aI00
aI00
aI00
aI00
aI00
aI00
aI01
aa(lp83
I01
aI00
aI01
aI00
aI01
aI01
aI01
aI00
aI01
aI01
aI01
aI01
aI01
aI01
aI01
aI01
aI01
aI01
aa(lp84
I01
aI00
aI01
aI00
aI00
aI00
aI00
aI00
aI00
aI00
aI00
aI00
aI00
aI00
aI00
aI00
aI00
aI01
aa(lp85
I01
aI00
aI00
aI00
aI00
aI00
aI00
aI00
aI00
aI00
aI00
aI00
aI00
aI00
aI00
aI01
aI00
aI01
aa(lp86
I01
aI01
aI01
aI01
aI01
aI01
aI01
aI01
aI01
aI01
aI00
aI01
aI01
aI01
aI00
aI01
aI00
aI01
aa(lp87
I01
aI00
aI00
aI00
aI00
aI00
aI00
aI00
aI00
aI00
aI00
aI01
aI00
aI00
aI00
aI01
aI00
aI01
aa(lp88
I01
aI01
aI01
aI00
aI01
aI01
aI01
aI01
aI01
aI01
aI01
aI01
aI01
aI01
aI01
aI01
aI00
aI01
aa(lp89
I01
aI00
aI00
aI00
aI00
aI00
aI00
aI00
aI01
aI00
aI00
aI01
aI00
aI00
aI00
aI01
aI00
aI01
aa(lp90
I01
aI01
aI00
aI01
aI01
aI01
aI01
aI01
aI01
aI00
aI00
aI01
aI01
aI01
aI00
aI01
aI00
aI01
aa(lp91
I01
aI00
aI00
aI00
aI00
aI00
aI00
aI00
aI01
aI00
aI01
aI01
aI00
aI01
aI00
aI01
aI00
aI01
aa(lp92
I01
aI00
aI00
aI00
aI00
aI00
aI01
aI00
aI00
aI00
aI00
aI01
aI00
aI01
aI00
aI01
aI00
aI01
aa(lp93
I01
aI01
aI01
aI01
aI01
aI01
aI01
aI01
aI01
aI01
aI00
aI01
aI00
aI01
aI00
aI01
aI00
aI01
aa(lp94
I01
aI00
aI00
aI00
aI00
aI00
aI00
aI00
aI00
aI00
aI00
aI01
aI00
aI01
aI00
aI01
aI00
aI01
aa(lp95
I01
aI01
aI01
aI00
aI01
aI01
aI01
aI01
aI01
aI00
aI00
aI00
aI00
aI00
aI00
aI00
aI00
aI01
aa(lp96
I01
aI00
aI01
aI00
aI01
aI00
aI01
aI00
aI01
aI00
aI00
aI01
aI00
aI01
aI00
aI01
aI00
aI01
aa(lp97
I01
aI00
aI00
aI00
aI00
aI00
aI00
aI00
aI01
aI00
aI00
aI00
aI00
aI01
aI00
aI00
aI00
aI01
aa(lp98
I01
aI01
aI01
aI00
aI01
aI01
aI01
aI01
aI01
aI01
aI01
aI00
aI01
aI01
aI01
aI00
aI01
aI01
aa(lp99
I01
aI00
aI01
aI00
aI00
aI00
aI00
aI01
aI00
aI00
aI00
aI00
aI00
aI00
aI00
aI00
aI00
aI01
aa(lp100
I01
aI00
aI00
aI00
aI00
aI01
aI00
aI00
aI00
aI00
aI00
aI00
aI00
aI01
aI00
aI00
aI00
aI01
aa(lp101
I01
aI01
aI01
aI01
aI01
aI01
aI01
aI01
aI01
aI01
aI01
aI01
aI01
aI01
aI01
aI01
aI01
aI01
aasg53
I18
sbsS'totalFood'
p102
I60
sS'layoutText'
p103
(lp104
S'%%%%%%%%%%%%%%%%%%%%%%%%%%%%%%%%%%'
p105
aS'%..%..%.%  %.%.%       .      % 4%'
p106
aS'% %% %%.%    %.% %%%%%%%%%% %   2%'
p107
aS'%       %  % . %   .%     o   %  %'
p108
aS'%  % %% %  % % %  %.%.%%%%% %%% %%'
p109
aS'%% % .% %  %.% %  %.%.%..  . .%  %'
p110
aS'%  % %% %% %.% %  %%%%%%%%% %    %'
p111
aS'% %%..% %  %.%.%    %. % .    %. %'
p112
aS'%  %%%%o% %%%% %  % %    %    %  %'
p113
aS'%  %    %    % %  % %%%% %o%%%%  %'
p114
aS'% .%    . % .%    %.%.%  % %..%% %'
p115
aS'%    % %%%%%%%%%  % %.% %% %% %  %'
p116
aS'%  %. .  ..%.%.%  % %.%  % %. % %%'
p117
aS'%% %%% %%%%%.%.%  % % %  % %% %  %'
p118
aS'%  %   o     %.   % . %  %       %'
p119
aS'%1   % %%%%%%%%%% %.%    %.%% %% %'
p120
aS'%3 %      .       %.%.%  %.%..%..%'
p121
aS'%%%%%%%%%%%%%%%%%%%%%%%%%%%%%%%%%%'
p122
asbsS'blueTeamName'
p123
S'Blue'
p124
sS'actions'
p125
(lp126
(I0
S'East'
p127
tp128
a(I1
S'West'
p129
tp130
a(I2
g127
tp131
a(I3
S'South'
p132
tp133
a(I0
g127
tp134
a(I1
g129
tp135
a(I2
S'North'
p136
tp137
a(I3
g132
tp138
a(I0
g127
tp139
a(I1
g129
tp140
a(I2
g129
tp141
a(I3
g129
tp142
a(I0
g132
tp143
a(I1
g136
tp144
a(I2
g132
tp145
a(I3
g132
tp146
a(I0
g127
tp147
a(I1
g129
tp148
a(I2
g127
tp149
a(I3
g132
tp150
a(I0
g127
tp151
a(I1
g129
tp152
a(I2
g136
tp153
a(I3
g127
tp154
a(I0
g127
tp155
a(I1
g129
tp156
a(I2
g129
tp157
a(I3
g132
tp158
a(I0
g127
tp159
a(I1
g129
tp160
a(I2
g132
tp161
a(I3
g129
tp162
a(I0
g127
tp163
a(I1
g129
tp164
a(I2
g127
tp165
a(I3
g136
tp166
a(I0
g127
tp167
a(I1
g129
tp168
a(I2
g136
tp169
a(I3
g127
tp170
a(I0
g127
tp171
a(I1
g129
tp172
a(I2
g127
tp173
a(I3
g132
tp174
a(I0
g127
tp175
a(I1
g129
tp176
a(I2
g127
tp177
a(I3
g129
tp178
a(I0
g127
tp179
a(I1
g129
tp180
a(I2
g136
tp181
a(I3
g129
tp182
a(I0
g127
tp183
a(I1
g129
tp184
a(I2
g127
tp185
a(I3
g129
tp186
a(I0
g127
tp187
a(I1
g129
tp188
a(I2
g127
tp189
a(I3
g132
tp190
a(I0
g127
tp191
a(I1
g129
tp192
a(I2
g136
tp193
a(I3
g132
tp194
a(I0
g127
tp195
a(I1
g129
tp196
a(I2
g136
tp197
a(I3
g129
tp198
a(I0
g136
tp199
a(I1
g132
tp200
a(I2
g127
tp201
a(I3
g129
tp202
a(I0
g136
tp203
a(I1
g132
tp204
a(I2
g127
tp205
a(I3
g129
tp206
a(I0
g136
tp207
a(I1
g132
tp208
a(I2
g127
tp209
a(I3
g132
tp210
a(I0
g136
tp211
a(I1
g132
tp212
a(I2
g127
tp213
a(I3
g132
tp214
a(I0
g136
tp215
a(I1
g132
tp216
a(I2
g129
tp217
a(I3
g132
tp218
a(I0
g136
tp219
a(I1
g127
tp220
a(I2
g129
tp221
a(I3
g136
tp222
a(I0
g136
tp223
a(I1
g132
tp224
a(I2
g129
tp225
a(I3
g136
tp226
a(I0
g136
tp227
a(I1
S'Stop'
p228
tp229
a(I2
g129
tp230
a(I3
g136
tp231
a(I0
g228
tp232
a(I1
g228
tp233
a(I2
g132
tp234
a(I3
g127
tp235
a(I0
g228
tp236
a(I1
g228
tp237
a(I2
g132
tp238
a(I3
g136
tp239
a(I0
g228
tp240
a(I1
g228
tp241
a(I2
g129
tp242
a(I3
g136
tp243
a(I0
g228
tp244
a(I1
g228
tp245
a(I2
g129
tp246
a(I3
g136
tp247
a(I0
g228
tp248
a(I1
g228
tp249
a(I2
g132
tp250
a(I3
g136
tp251
a(I0
g228
tp252
a(I1
g228
tp253
a(I2
g132
tp254
a(I3
g136
tp255
a(I0
g228
tp256
a(I1
g228
tp257
a(I2
g127
tp258
a(I3
g136
tp259
a(I0
g228
tp260
a(I1
g228
tp261
a(I2
g127
tp262
a(I3
g136
tp263
a(I0
g228
tp264
a(I1
g228
tp265
a(I2
g136
tp266
a(I3
g129
tp267
a(I0
g228
tp268
a(I1
g228
tp269
a(I2
g136
tp270
a(I3
g129
tp271
a(I0
g228
tp272
a(I1
g228
tp273
a(I2
g127
tp274
a(I3
g129
tp275
a(I0
g228
tp276
a(I1
g228
tp277
a(I2
g127
tp278
a(I3
g129
tp279
a(I0
g228
tp280
a(I1
g228
tp281
a(I2
g127
tp282
a(I3
g129
tp283
a(I0
g228
tp284
a(I1
g228
tp285
a(I2
g127
tp286
a(I3
g129
tp287
a(I0
g228
tp288
a(I1
g228
tp289
a(I2
g127
tp290
a(I3
g129
tp291
a(I0
g228
tp292
a(I1
g228
tp293
a(I2
g127
tp294
a(I3
g129
tp295
a(I0
g228
tp296
a(I1
g228
tp297
a(I2
g136
tp298
a(I3
g129
tp299
a(I0
g228
tp300
a(I1
g228
tp301
a(I2
g136
tp302
a(I3
g129
tp303
a(I0
g228
tp304
a(I1
g228
tp305
a(I2
g132
tp306
a(I3
g127
tp307
a(I0
g228
tp308
a(I1
g228
tp309
a(I2
g132
tp310
a(I3
g129
tp311
a(I0
g228
tp312
a(I1
g228
tp313
a(I2
g129
tp314
a(I3
g127
tp315
a(I0
g228
tp316
a(I1
g228
tp317
a(I2
g129
tp318
a(I3
g129
tp319
a(I0
g228
tp320
a(I1
g228
tp321
a(I2
g129
tp322
a(I3
g127
tp323
a(I0
g228
tp324
a(I1
g228
tp325
a(I2
g129
tp326
a(I3
g129
tp327
a(I0
g228
tp328
a(I1
g228
tp329
a(I2
g129
tp330
a(I3
g127
tp331
a(I0
g228
tp332
a(I1
g228
tp333
a(I2
g129
tp334
a(I3
g129
tp335
a(I0
g228
tp336
a(I1
g228
tp337
a(I2
g132
tp338
a(I3
g127
tp339
a(I0
g228
tp340
a(I1
g228
tp341
a(I2
g132
tp342
a(I3
g129
tp343
a(I0
g228
tp344
a(I1
g228
tp345
a(I2
g127
tp346
a(I3
g127
tp347
a(I0
g228
tp348
a(I1
g228
tp349
a(I2
g127
tp350
a(I3
g129
tp351
a(I0
g228
tp352
a(I1
g228
tp353
a(I2
g127
tp354
a(I3
g127
tp355
a(I0
g228
tp356
a(I1
g228
tp357
a(I2
g127
tp358
a(I3
g129
tp359
a(I0
g228
tp360
a(I1
g228
tp361
a(I2
g127
tp362
a(I3
g127
tp363
a(I0
g228
tp364
a(I1
g228
tp365
a(I2
g127
tp366
a(I3
g129
tp367
a(I0
g228
tp368
a(I1
g228
tp369
a(I2
g127
tp370
a(I3
g127
tp371
a(I0
g228
tp372
a(I1
g228
tp373
a(I2
g127
tp374
a(I3
g129
tp375
a(I0
g228
tp376
a(I1
g228
tp377
a(I2
g127
tp378
a(I3
g127
tp379
a(I0
g228
tp380
a(I1
g228
tp381
a(I2
g127
tp382
a(I3
g129
tp383
a(I0
g228
tp384
a(I1
g228
tp385
a(I2
g129
tp386
a(I3
g127
tp387
a(I0
g228
tp388
a(I1
g228
tp389
a(I2
g129
tp390
a(I3
g129
tp391
a(I0
g228
tp392
a(I1
g228
tp393
a(I2
g129
tp394
a(I3
g127
tp395
a(I0
g228
tp396
a(I1
g228
tp397
a(I2
g129
tp398
a(I3
g129
tp399
a(I0
g228
tp400
a(I1
g228
tp401
a(I2
g129
tp402
a(I3
g127
tp403
a(I0
g228
tp404
a(I1
g228
tp405
a(I2
g129
tp406
a(I3
g129
tp407
a(I0
g228
tp408
a(I1
g228
tp409
a(I2
g129
tp410
a(I3
g127
tp411
a(I0
g228
tp412
a(I1
g228
tp413
a(I2
g129
tp414
a(I3
g129
tp415
a(I0
g228
tp416
a(I1
g228
tp417
a(I2
g129
tp418
a(I3
g127
tp419
a(I0
g228
tp420
a(I1
g228
tp421
a(I2
g129
tp422
a(I3
g129
tp423
a(I0
g228
tp424
a(I1
g228
tp425
a(I2
g129
tp426
a(I3
g127
tp427
a(I0
g228
tp428
a(I1
g228
tp429
a(I2
g129
tp430
a(I3
g129
tp431
a(I0
g228
tp432
a(I1
g228
tp433
a(I2
g136
tp434
a(I3
g127
tp435
a(I0
g228
tp436
a(I1
g228
tp437
a(I2
g129
tp438
a(I3
g129
tp439
a(I0
g228
tp440
a(I1
g228
tp441
a(I2
g129
tp442
a(I3
g127
tp443
a(I0
g228
tp444
a(I1
g228
tp445
a(I2
g129
tp446
a(I3
g129
tp447
a(I0
g228
tp448
a(I1
g228
tp449
a(I2
g136
tp450
a(I3
g127
tp451
a(I0
g228
tp452
a(I1
g228
tp453
a(I2
g127
tp454
a(I3
g129
tp455
a(I0
g228
tp456
a(I1
g228
tp457
a(I2
g136
tp458
a(I3
g127
tp459
a(I0
g228
tp460
a(I1
g228
tp461
a(I2
g136
tp462
a(I3
g129
tp463
a(I0
g228
tp464
a(I1
g228
tp465
a(I2
g136
tp466
a(I3
g127
tp467
a(I0
g228
tp468
a(I1
g228
tp469
a(I2
g136
tp470
a(I3
g129
tp471
a(I0
g228
tp472
a(I1
g228
tp473
a(I2
g129
tp474
a(I3
g127
tp475
a(I0
g228
tp476
a(I1
g228
tp477
a(I2
g132
tp478
a(I3
g129
tp479
a(I0
g228
tp480
a(I1
g228
tp481
a(I2
g127
tp482
a(I3
g127
tp483
a(I0
g228
tp484
a(I1
g228
tp485
a(I2
g127
tp486
a(I3
g129
tp487
a(I0
g228
tp488
a(I1
g228
tp489
a(I2
g127
tp490
a(I3
g127
tp491
a(I0
g228
tp492
a(I1
g228
tp493
a(I2
g136
tp494
a(I3
g129
tp495
a(I0
g228
tp496
a(I1
g228
tp497
a(I2
g136
tp498
a(I3
g127
tp499
a(I0
g228
tp500
a(I1
g228
tp501
a(I2
g127
tp502
a(I3
g129
tp503
a(I0
g228
tp504
a(I1
g228
tp505
a(I2
g132
tp506
a(I3
g127
tp507
a(I0
g228
tp508
a(I1
g228
tp509
a(I2
g127
tp510
a(I3
g129
tp511
a(I0
g228
tp512
a(I1
g228
tp513
a(I2
g136
tp514
a(I3
g127
tp515
a(I0
g228
tp516
a(I1
g228
tp517
a(I2
g129
tp518
a(I3
g129
tp519
a(I0
g228
tp520
a(I1
g228
tp521
a(I2
g132
tp522
a(I3
g127
tp523
a(I0
g228
tp524
a(I1
g228
tp525
a(I2
g129
tp526
a(I3
g129
tp527
a(I0
g228
tp528
a(I1
g228
tp529
a(I2
g136
tp530
a(I3
g127
tp531
a(I0
g228
tp532
a(I1
g228
tp533
a(I2
g127
tp534
a(I3
g129
tp535
a(I0
g228
tp536
a(I1
g228
tp537
a(I2
g132
tp538
a(I3
g127
tp539
a(I0
g228
tp540
a(I1
g228
tp541
a(I2
g129
tp542
a(I3
g129
tp543
a(I0
g228
tp544
a(I1
g228
tp545
a(I2
g136
tp546
a(I3
g127
tp547
a(I0
g228
tp548
a(I1
g228
tp549
a(I2
g127
tp550
a(I3
g129
tp551
a(I0
g228
tp552
a(I1
g228
tp553
a(I2
g132
tp554
a(I3
g127
tp555
a(I0
g228
tp556
a(I1
g228
tp557
a(I2
g127
tp558
a(I3
g129
tp559
a(I0
g228
tp560
a(I1
g228
tp561
a(I2
g132
tp562
a(I3
g127
tp563
a(I0
g228
tp564
a(I1
g228
tp565
a(I2
g132
tp566
a(I3
g129
tp567
a(I0
g228
tp568
a(I1
g228
tp569
a(I2
g127
tp570
a(I3
g127
tp571
a(I0
g228
tp572
a(I1
g228
tp573
a(I2
g127
tp574
a(I3
g129
tp575
a(I0
g228
tp576
a(I1
g228
tp577
a(I2
g127
tp578
a(I3
g127
tp579
a(I0
g228
tp580
a(I1
g228
tp581
a(I2
g127
tp582
a(I3
g129
tp583
a(I0
g228
tp584
a(I1
g228
tp585
a(I2
g129
tp586
a(I3
g127
tp587
a(I0
g228
tp588
a(I1
g228
tp589
a(I2
g129
tp590
a(I3
g129
tp591
a(I0
g228
tp592
a(I1
g228
tp593
a(I2
g129
tp594
a(I3
g127
tp595
a(I0
g228
tp596
a(I1
g228
tp597
a(I2
g129
tp598
a(I3
g129
tp599
a(I0
g228
tp600
a(I1
g228
tp601
a(I2
g132
tp602
a(I3
g127
tp603
a(I0
g228
tp604
a(I1
g228
tp605
a(I2
g132
tp606
a(I3
g129
tp607
a(I0
g228
tp608
a(I1
g228
tp609
a(I2
g127
tp610
a(I3
g127
tp611
a(I0
g228
tp612
a(I1
g228
tp613
a(I2
g127
tp614
a(I3
g129
tp615
a(I0
g228
tp616
a(I1
g228
tp617
a(I2
g127
tp618
a(I3
g127
tp619
a(I0
g228
tp620
a(I1
g228
tp621
a(I2
g127
tp622
a(I3
g129
tp623
a(I0
g228
tp624
a(I1
g228
tp625
a(I2
g127
tp626
a(I3
g127
tp627
a(I0
g228
tp628
a(I1
g228
tp629
a(I2
g127
tp630
a(I3
g129
tp631
a(I0
g228
tp632
a(I1
g228
tp633
a(I2
g136
tp634
a(I3
g127
tp635
a(I0
g228
tp636
a(I1
g228
tp637
a(I2
g136
tp638
a(I3
g129
tp639
a(I0
g228
tp640
a(I1
g228
tp641
a(I2
g132
tp642
a(I3
g127
tp643
a(I0
g228
tp644
a(I1
g228
tp645
a(I2
g132
tp646
a(I3
g129
tp647
a(I0
g228
tp648
a(I1
g228
tp649
a(I2
g129
tp650
a(I3
g127
tp651
a(I0
g228
tp652
a(I1
g228
tp653
a(I2
g129
tp654
a(I3
g129
tp655
a(I0
g228
tp656
a(I1
g228
tp657
a(I2
g129
tp658
a(I3
g127
tp659
a(I0
g228
tp660
a(I1
g228
tp661
a(I2
g129
tp662
a(I3
g129
tp663
a(I0
g228
tp664
a(I1
g228
tp665
a(I2
g129
tp666
a(I3
g127
tp667
a(I0
g228
tp668
a(I1
g228
tp669
a(I2
g129
tp670
a(I3
g129
tp671
a(I0
g228
tp672
a(I1
g228
tp673
a(I2
g132
tp674
a(I3
g127
tp675
a(I0
g228
tp676
a(I1
g228
tp677
a(I2
g132
tp678
a(I3
g129
tp679
a(I0
g228
tp680
a(I1
g228
tp681
a(I2
g129
tp682
a(I3
g127
tp683
a(I0
g228
tp684
a(I1
g228
tp685
a(I2
g129
tp686
a(I3
g129
tp687
a(I0
g228
tp688
a(I1
g228
tp689
a(I2
g136
tp690
a(I3
g127
tp691
a(I0
g228
tp692
a(I1
g228
tp693
a(I2
g129
tp694
a(I3
g129
tp695
a(I0
g228
tp696
a(I1
g228
tp697
a(I2
g129
tp698
a(I3
g127
tp699
a(I0
g228
tp700
a(I1
g228
tp701
a(I2
g132
tp702
a(I3
g129
tp703
a(I0
g228
tp704
a(I1
g228
tp705
a(I2
g129
tp706
a(I3
g127
tp707
a(I0
g228
tp708
a(I1
g228
tp709
a(I2
g136
tp710
a(I3
g129
tp711
a(I0
g228
tp712
a(I1
g228
tp713
a(I2
g136
tp714
a(I3
g127
tp715
a(I0
g228
tp716
a(I1
g228
tp717
a(I2
g127
tp718
a(I3
g129
tp719
a(I0
g228
tp720
a(I1
g228
tp721
a(I2
g132
tp722
a(I3
g127
tp723
a(I0
g228
tp724
a(I1
g228
tp725
a(I2
g132
tp726
a(I3
g129
tp727
a(I0
g228
tp728
a(I1
g228
tp729
a(I2
g129
tp730
a(I3
g127
tp731
a(I0
g228
tp732
a(I1
g228
tp733
a(I2
g136
tp734
a(I3
g129
tp735
a(I0
g228
tp736
a(I1
g228
tp737
a(I2
g136
tp738
a(I3
g127
tp739
a(I0
g228
tp740
a(I1
g228
tp741
a(I2
g127
tp742
a(I3
g129
tp743
a(I0
g228
tp744
a(I1
g228
tp745
a(I2
g136
tp746
a(I3
g127
tp747
a(I0
g228
tp748
a(I1
g228
tp749
a(I2
g136
tp750
a(I3
g129
tp751
a(I0
g228
tp752
a(I1
g228
tp753
a(I2
g136
tp754
a(I3
g127
tp755
a(I0
g228
tp756
a(I1
g228
tp757
a(I2
g136
tp758
a(I3
g129
tp759
a(I0
g228
tp760
a(I1
g228
tp761
a(I2
g129
tp762
a(I3
g127
tp763
a(I0
g228
tp764
a(I1
g228
tp765
a(I2
g132
tp766
a(I3
g129
tp767
a(I0
g228
tp768
a(I1
g228
tp769
a(I2
g127
tp770
a(I3
g127
tp771
a(I0
g228
tp772
a(I1
g228
tp773
a(I2
g127
tp774
a(I3
g129
tp775
a(I0
g228
tp776
a(I1
g228
tp777
a(I2
g127
tp778
a(I3
g127
tp779
a(I0
g228
tp780
a(I1
g228
tp781
a(I2
g132
tp782
a(I3
g129
tp783
a(I0
g228
tp784
a(I1
g228
tp785
a(I2
g127
tp786
a(I3
g127
tp787
a(I0
g228
tp788
a(I1
g228
tp789
a(I2
g127
tp790
a(I3
g129
tp791
a(I0
g228
tp792
a(I1
g228
tp793
a(I2
g132
tp794
a(I3
g127
tp795
a(I0
g228
tp796
a(I1
g228
tp797
a(I2
g132
tp798
a(I3
g129
tp799
a(I0
g228
tp800
a(I1
g228
tp801
a(I2
g127
tp802
a(I3
g127
tp803
a(I0
g228
tp804
a(I1
g228
tp805
a(I2
g127
tp806
a(I3
g129
tp807
a(I0
g228
tp808
a(I1
g228
tp809
a(I2
g127
tp810
a(I3
g127
tp811
a(I0
g228
tp812
a(I1
g228
tp813
a(I2
g127
tp814
a(I3
g129
tp815
a(I0
g228
tp816
a(I1
g228
tp817
a(I2
g127
tp818
a(I3
g127
tp819
a(I0
g228
tp820
a(I1
g228
tp821
a(I2
g127
tp822
a(I3
g129
tp823
a(I0
g228
tp824
a(I1
g228
tp825
a(I2
g136
tp826
a(I3
g127
tp827
a(I0
g228
tp828
a(I1
g228
tp829
a(I2
g136
tp830
a(I3
g129
tp831
a(I0
g228
tp832
a(I1
g228
tp833
a(I2
g132
tp834
a(I3
g127
tp835
a(I0
g228
tp836
a(I1
g228
tp837
a(I2
g132
tp838
a(I3
g129
tp839
a(I0
g228
tp840
a(I1
g228
tp841
a(I2
g129
tp842
a(I3
g127
tp843
a(I0
g228
tp844
a(I1
g228
tp845
a(I2
g129
tp846
a(I3
g129
tp847
a(I0
g228
tp848
a(I1
g228
tp849
a(I2
g129
tp850
a(I3
g127
tp851
a(I0
g228
tp852
a(I1
g228
tp853
a(I2
g129
tp854
a(I3
g129
tp855
a(I0
g228
tp856
a(I1
g228
tp857
a(I2
g129
tp858
a(I3
g127
tp859
a(I0
g228
tp860
a(I1
g228
tp861
a(I2
g129
tp862
a(I3
g129
tp863
a(I0
g228
tp864
a(I1
g228
tp865
a(I2
g136
tp866
a(I3
g127
tp867
a(I0
g228
tp868
a(I1
g228
tp869
a(I2
g136
tp870
a(I3
g129
tp871
a(I0
g228
tp872
a(I1
g228
tp873
a(I2
g136
tp874
a(I3
g127
tp875
a(I0
g228
tp876
a(I1
g228
tp877
a(I2
g136
tp878
a(I3
g129
tp879
a(I0
g228
tp880
a(I1
g228
tp881
a(I2
g127
tp882
a(I3
g127
tp883
a(I0
g228
tp884
a(I1
g228
tp885
a(I2
g127
tp886
a(I3
g129
tp887
a(I0
g228
tp888
a(I1
g228
tp889
a(I2
g127
tp890
a(I3
g127
tp891
a(I0
g228
tp892
a(I1
g228
tp893
a(I2
g136
tp894
a(I3
g129
tp895
a(I0
g228
tp896
a(I1
g228
tp897
a(I2
g136
tp898
a(I3
g127
tp899
a(I0
g228
tp900
a(I1
g228
tp901
a(I2
g136
tp902
a(I3
g129
tp903
a(I0
g228
tp904
a(I1
g228
tp905
a(I2
g127
tp906
a(I3
g127
tp907
a(I0
g228
tp908
a(I1
g228
tp909
a(I2
g136
tp910
a(I3
g129
tp911
a(I0
g228
tp912
a(I1
g228
tp913
a(I2
g136
tp914
a(I3
g127
tp915
a(I0
g228
tp916
a(I1
g228
tp917
a(I2
g136
tp918
a(I3
g129
tp919
a(I0
g228
tp920
a(I1
g228
tp921
a(I2
g136
tp922
a(I3
g127
tp923
a(I0
g228
tp924
a(I1
g228
tp925
a(I2
g129
tp926
a(I3
g129
tp927
a(I0
g228
tp928
a(I1
g228
tp929
a(I2
g132
tp930
a(I3
g127
tp931
a(I0
g228
tp932
a(I1
g228
tp933
a(I2
g132
tp934
a(I3
g129
tp935
a(I0
g228
tp936
a(I1
g228
tp937
a(I2
g127
tp938
a(I3
g127
tp939
a(I0
g228
tp940
a(I1
g228
tp941
a(I2
g136
tp942
a(I3
g129
tp943
a(I0
g228
tp944
a(I1
g228
tp945
a(I2
g129
tp946
a(I3
g127
tp947
a(I0
g228
tp948
a(I1
g228
tp949
a(I2
g136
tp950
a(I3
g129
tp951
a(I0
g228
tp952
a(I1
g228
tp953
a(I2
g127
tp954
a(I3
g127
tp955
a(I0
g228
tp956
a(I1
g228
tp957
a(I2
g132
tp958
a(I3
g129
tp959
a(I0
g228
tp960
a(I1
g228
tp961
a(I2
g132
tp962
a(I3
g127
tp963
a(I0
g228
tp964
a(I1
g228
tp965
a(I2
g132
tp966
a(I3
g129
tp967
a(I0
g228
tp968
a(I1
g228
tp969
a(I2
g132
tp970
a(I3
g127
tp971
a(I0
g228
tp972
a(I1
g228
tp973
a(I2
g129
tp974
a(I3
g129
tp975
a(I0
g228
tp976
a(I1
g228
tp977
a(I2
g132
tp978
a(I3
g127
tp979
a(I0
g228
tp980
a(I1
g228
tp981
a(I2
g132
tp982
a(I3
g129
tp983
a(I0
g228
tp984
a(I1
g228
tp985
a(I2
g127
tp986
a(I3
g127
tp987
a(I0
g228
tp988
a(I1
g228
tp989
a(I2
g127
tp990
a(I3
g129
tp991
a(I0
g228
tp992
a(I1
g228
tp993
a(I2
g127
tp994
a(I3
g127
tp995
a(I0
g228
tp996
a(I1
g228
tp997
a(I2
g132
tp998
a(I3
g129
tp999
a(I0
g228
tp1000
a(I1
g228
tp1001
a(I2
g129
tp1002
a(I3
g127
tp1003
a(I0
g228
tp1004
a(I1
g228
tp1005
a(I2
g136
tp1006
a(I3
g129
tp1007
a(I0
g228
tp1008
a(I1
g228
tp1009
a(I2
g129
tp1010
a(I3
g127
tp1011
a(I0
g228
tp1012
a(I1
g228
tp1013
a(I2
g129
tp1014
a(I3
g129
tp1015
a(I0
g228
tp1016
a(I1
g228
tp1017
a(I2
g136
tp1018
a(I3
g127
tp1019
a(I0
g228
tp1020
a(I1
g228
tp1021
a(I2
g136
tp1022
a(I3
g129
tp1023
a(I0
g228
tp1024
a(I1
g228
tp1025
a(I2
g127
tp1026
a(I3
g127
tp1027
a(I0
g228
tp1028
a(I1
g228
tp1029
a(I2
g136
tp1030
a(I3
g129
tp1031
a(I0
g228
tp1032
a(I1
g228
tp1033
a(I2
g136
tp1034
a(I3
g127
tp1035
a(I0
g228
tp1036
a(I1
g228
tp1037
a(I2
g136
tp1038
a(I3
g129
tp1039
a(I0
g228
tp1040
a(I1
g228
tp1041
a(I2
g136
tp1042
a(I3
g127
tp1043
a(I0
g228
tp1044
a(I1
g228
tp1045
a(I2
g136
tp1046
a(I3
g129
tp1047
a(I0
g228
tp1048
a(I1
g228
tp1049
a(I2
g127
tp1050
a(I3
g127
tp1051
a(I0
g228
tp1052
a(I1
g228
tp1053
a(I2
g127
tp1054
a(I3
g129
tp1055
a(I0
g228
tp1056
a(I1
g228
tp1057
a(I2
g132
tp1058
a(I3
g127
tp1059
a(I0
g228
tp1060
a(I1
g228
tp1061
a(I2
g132
tp1062
a(I3
g129
tp1063
a(I0
g228
tp1064
a(I1
g228
tp1065
a(I2
g132
tp1066
a(I3
g127
tp1067
a(I0
g228
tp1068
a(I1
g228
tp1069
a(I2
g132
tp1070
a(I3
g129
tp1071
a(I0
g228
tp1072
a(I1
g228
tp1073
a(I2
g132
tp1074
a(I3
g127
tp1075
a(I0
g228
tp1076
a(I1
g228
tp1077
a(I2
g136
tp1078
a(I3
g129
tp1079
a(I0
g228
tp1080
a(I1
g228
tp1081
a(I2
g136
tp1082
a(I3
g127
tp1083
a(I0
g228
tp1084
a(I1
g228
tp1085
a(I2
g136
tp1086
a(I3
g129
tp1087
a(I0
g228
tp1088
a(I1
g228
tp1089
a(I2
g136
tp1090
a(I3
g127
tp1091
a(I0
g228
tp1092
a(I1
g228
tp1093
a(I2
g136
tp1094
a(I3
g129
tp1095
a(I0
g228
tp1096
a(I1
g228
tp1097
a(I2
g129
tp1098
a(I3
g127
tp1099
a(I0
g228
tp1100
a(I1
g228
tp1101
a(I2
g129
tp1102
a(I3
g129
tp1103
a(I0
g228
tp1104
a(I1
g228
tp1105
a(I2
g136
tp1106
a(I3
g127
tp1107
a(I0
g228
tp1108
a(I1
g228
tp1109
a(I2
g129
tp1110
a(I3
g129
tp1111
a(I0
g228
tp1112
a(I1
g228
tp1113
a(I2
g132
tp1114
a(I3
g127
tp1115
a(I0
g228
tp1116
a(I1
g228
tp1117
a(I2
g127
tp1118
a(I3
g129
tp1119
a(I0
g228
tp1120
a(I1
g228
tp1121
a(I2
g127
tp1122
a(I3
g127
tp1123
a(I0
g228
tp1124
a(I1
g228
tp1125
a(I2
g127
tp1126
a(I3
g129
tp1127
a(I0
g228
tp1128
a(I1
g228
tp1129
a(I2
g132
tp1130
a(I3
g127
tp1131
a(I0
g228
tp1132
a(I1
g228
tp1133
a(I2
g127
tp1134
a(I3
g129
tp1135
a(I0
g228
tp1136
a(I1
g228
tp1137
a(I2
g127
tp1138
a(I3
g127
tp1139
a(I0
g228
tp1140
a(I1
g228
tp1141
a(I2
g136
tp1142
a(I3
g129
tp1143
a(I0
g228
tp1144
a(I1
g228
tp1145
a(I2
g136
tp1146
a(I3
g127
tp1147
a(I0
g228
tp1148
a(I1
g228
tp1149
a(I2
g132
tp1150
a(I3
g129
tp1151
a(I0
g228
tp1152
a(I1
g228
tp1153
a(I2
g132
tp1154
a(I3
g127
tp1155
a(I0
g228
tp1156
a(I1
g228
tp1157
a(I2
g129
tp1158
a(I3
g129
tp1159
a(I0
g228
tp1160
a(I1
g228
tp1161
a(I2
g129
tp1162
a(I3
g127
tp1163
a(I0
g228
tp1164
a(I1
g228
tp1165
a(I2
g136
tp1166
a(I3
g129
tp1167
a(I0
g228
tp1168
a(I1
g228
tp1169
a(I2
g129
tp1170
a(I3
g127
tp1171
a(I0
g228
tp1172
a(I1
g228
tp1173
a(I2
g129
tp1174
a(I3
g129
tp1175
a(I0
g228
tp1176
a(I1
g228
tp1177
a(I2
g129
tp1178
a(I3
g127
tp1179
a(I0
g228
tp1180
a(I1
g228
tp1181
a(I2
g136
tp1182
a(I3
g129
tp1183
a(I0
g228
tp1184
a(I1
g228
tp1185
a(I2
g127
tp1186
a(I3
g127
tp1187
a(I0
g228
tp1188
a(I1
g228
tp1189
a(I2
g132
tp1190
a(I3
g129
tp1191
a(I0
g228
tp1192
a(I1
g228
tp1193
a(I2
g129
tp1194
a(I3
g127
tp1195
a(I0
g228
tp1196
a(I1
g228
tp1197
a(I2
g136
tp1198
a(I3
g129
tp1199
a(I0
g228
tp1200
a(I1
g228
tp1201
a(I2
g127
tp1202
a(I3
g127
tp1203
a(I0
g228
tp1204
a(I1
g228
tp1205
a(I2
g132
tp1206
a(I3
g129
tp1207
a(I0
g228
tp1208
a(I1
g228
tp1209
a(I2
g127
tp1210
a(I3
g127
tp1211
a(I0
g228
tp1212
a(I1
g228
tp1213
a(I2
g127
tp1214
a(I3
g129
tp1215
a(I0
g228
tp1216
a(I1
g228
tp1217
a(I2
g132
tp1218
a(I3
g127
tp1219
a(I0
g228
tp1220
a(I1
g228
tp1221
a(I2
g127
tp1222
a(I3
g129
tp1223
a(I0
g228
tp1224
a(I1
g228
tp1225
a(I2
g127
tp1226
a(I3
g127
tp1227
a(I0
g228
tp1228
a(I1
g228
tp1229
a(I2
g132
tp1230
a(I3
g129
tp1231
a(I0
g228
tp1232
a(I1
g228
tp1233
a(I2
g132
tp1234
a(I3
g127
tp1235
a(I0
g228
tp1236
a(I1
g228
tp1237
a(I2
g132
tp1238
a(I3
g129
tp1239
a(I0
g228
tp1240
a(I1
g228
tp1241
a(I2
g132
tp1242
a(I3
g127
tp1243
a(I0
g228
tp1244
a(I1
g228
tp1245
a(I2
g132
tp1246
a(I3
g129
tp1247
a(I0
g228
tp1248
a(I1
g228
tp1249
a(I2
g132
tp1250
a(I3
g127
tp1251
a(I0
g228
tp1252
a(I1
g228
tp1253
a(I2
g132
tp1254
a(I3
g129
tp1255
a(I0
g228
tp1256
a(I1
g228
tp1257
a(I2
g127
tp1258
a(I3
g127
tp1259
a(I0
g228
tp1260
a(I1
g228
tp1261
a(I2
g127
tp1262
a(I3
g129
tp1263
a(I0
g228
tp1264
a(I1
g136
tp1265
a(I2
g132
tp1266
a(I3
g127
tp1267
a(I0
g136
tp1268
a(I1
g228
tp1269
a(I2
g132
tp1270
a(I3
g129
tp1271
a(I0
g127
tp1272
a(I1
g132
tp1273
a(I2
g132
tp1274
a(I3
g127
tp1275
a(I0
g127
tp1276
a(I1
g127
tp1277
a(I2
g132
tp1278
a(I3
g129
tp1279
a(I0
g132
tp1280
a(I1
g127
tp1281
a(I2
g129
tp1282
a(I3
g127
tp1283
a(I0
g132
tp1284
a(I1
g132
tp1285
a(I2
g129
tp1286
a(I3
g129
tp1287
a(I0
g132
tp1288
a(I1
g132
tp1289
a(I2
g136
tp1290
a(I3
g127
tp1291
a(I0
g132
tp1292
a(I1
g132
tp1293
a(I2
g136
tp1294
a(I3
g129
tp1295
a(I0
g132
tp1296
a(I1
g132
tp1297
a(I2
g132
tp1298
a(I3
g127
tp1299
a(I0
g132
tp1300
a(I1
g132
tp1301
a(I2
g132
tp1302
a(I3
g129
tp1303
a(I0
g132
tp1304
a(I1
g132
tp1305
a(I2
g127
tp1306
a(I3
g127
tp1307
a(I0
g132
tp1308
a(I1
g132
tp1309
a(I2
g127
tp1310
a(I3
g129
tp1311
a(I0
g132
tp1312
a(I1
g132
tp1313
a(I2
g136
tp1314
a(I3
g127
tp1315
a(I0
g228
tp1316
a(I1
g228
tp1317
a(I2
g136
tp1318
a(I3
g129
tp1319
a(I0
g228
tp1320
a(I1
g228
tp1321
a(I2
g136
tp1322
a(I3
g127
tp1323
a(I0
g228
tp1324
a(I1
g228
tp1325
a(I2
g136
tp1326
a(I3
g129
tp1327
a(I0
g228
tp1328
a(I1
g228
tp1329
a(I2
g129
tp1330
a(I3
g127
tp1331
asS'length'
p1332
I1200
sS'agents'
p1333
(lp1334
(igame
Agent
p1335
(dp1336
S'index'
p1337
I0
sba(igame
Agent
p1338
(dp1339
g1337
I0
sba(igame
Agent
p1340
(dp1341
g1337
I0
sba(igame
Agent
p1342
(dp1343
g1337
I0
sbasS'redTeamName'
p1344
S'Red'
p1345
s.