(dp1
S'layout'
p2
(ilayout
Layout
p3
(dp4
S'capsules'
p5
(lp6
(I8
I2
tp7
a(I8
I6
tp8
a(I25
I11
tp9
a(I25
I15
tp10
asS'numGhosts'
p11
I4
sS'food'
p12
(igame
Grid
p13
(dp14
S'CELLS_PER_INT'
p15
I30
sS'width'
p16
I34
sS'data'
p17
(lp18
(lp19
I00
aI00
aI00
aI00
aI00
aI00
aI00
aI00
aI00
aI00
aI00
aI00
aI00
aI00
aI00
aI00
aI00
aI00
aa(lp20
I00
aI00
aI00
aI00
aI00
aI01
aI00
aI01
aI00
aI01
aI00
aI00
aI00
aI01
aI01
aI00
aI01
aI00
aa(lp21
I00
aI00
aI00
aI00
aI00
aI00
aI00
aI00
aI01
aI00
aI00
aI00
aI01
aI00
aI00
aI00
aI01
aI00
aa(lp22
I00
aI00
aI00
aI00
aI00
aI00
aI00
aI00
aI00
aI00
aI00
aI00
aI00
aI00
aI00
aI00
aI00
aI00
aa(lp23
I00
aI00
aI00
aI00
aI00
aI00
aI00
aI00
aI00
aI00
aI00
aI00
aI00
aI00
aI00
aI01
aI01
aI00
aa(lp24
I00
aI00
aI00
aI00
aI00
aI00
aI00
aI00
aI00
aI00
aI00
aI00
aI00
aI00
aI00
aI00
aI00
aI00
aa(lp25
I00
aI00
aI00
aI00
aI00
aI00
aI00
aI00
aI01
aI00
aI00
aI01
aI00
aI01
aI00
aI01
aI01
aI00
aa(lp26
I00
aI00
aI00
aI00
aI00
aI00
aI00
aI00
aI00
aI00
aI00
aI00
aI00
aI00
aI00
aI00
aI00
aI00
aa(lp27
I00
aI00
aI00
aI00
aI00
aI00
aI00
aI01
aI00
aI00
aI00
aI00
aI00
aI00
aI00
aI00
aI00
aI00
aa(lp28
I00
aI01
aI00
aI00
aI00
aI00
aI00
aI00
aI00
aI00
aI00
aI01
aI00
aI00
aI00
aI00
aI00
aI00
aa(lp29
I00
aI00
aI00
aI00
aI01
aI00
aI00
aI00
aI00
aI00
aI00
aI00
aI00
aI00
aI00
aI00
aI00
aI00
aa(lp30
I00
aI00
aI00
aI00
aI00
aI00
aI01
aI00
aI00
aI00
aI00
aI00
aI00
aI00
aI00
aI00
aI01
aI00
aa(lp31
I00
aI00
aI00
aI00
aI00
aI00
aI00
aI01
aI00
aI00
aI00
aI00
aI00
aI00
aI00
aI00
aI00
aI00
aa(lp32
I00
aI00
aI00
aI00
aI00
aI00
aI00
aI00
aI00
aI01
aI00
aI01
aI01
aI01
aI00
aI00
aI00
aI00
aa(lp33
I00
aI00
aI00
aI00
aI00
aI00
aI01
aI01
aI00
aI01
aI00
aI00
aI00
aI00
aI00
aI00
aI00
aI00
aa(lp34
I00
aI00
aI00
aI00
aI00
aI00
aI00
aI00
aI00
aI00
aI00
aI00
aI00
aI00
aI00
aI00
aI00
aI00
aa(lp35
I00
aI00
aI00
aI00
aI00
aI00
aI00
aI00
aI00
aI00
aI00
aI00
aI00
aI00
aI00
aI00
aI00
aI00
aa(lp36
I00
aI00
aI00
aI00
aI00
aI00
aI00
aI00
aI00
aI00
aI00
aI00
aI00
aI00
aI00
aI00
aI00
aI00
aa(lp37
I00
aI00
aI00
aI00
aI00
aI00
aI00
aI00
aI00
aI00
aI00
aI00
aI00
aI00
aI00
aI00
aI00
aI00
aa(lp38
I00
aI00
aI00
aI00
aI00
aI00
aI00
aI00
aI01
aI00
aI01
aI01
aI00
aI00
aI00
aI00
aI00
aI00
aa(lp39
I00
aI00
aI00
aI00
aI01
aI01
aI01
aI00
aI01
aI00
aI00
aI00
aI00
aI00
aI00
aI00
aI00
aI00
aa(lp40
I00
aI00
aI00
aI00
aI00
aI00
aI00
aI00
aI00
aI00
aI01
aI00
aI00
aI00
aI00
aI00
aI00
aI00
aa(lp41
I00
aI01
aI00
aI00
aI00
aI00
aI00
aI00
aI00
aI00
aI00
aI01
aI00
aI00
aI00
aI00
aI00
aI00
aa(lp42
I00
aI00
aI00
aI00
aI00
aI00
aI00
aI00
aI00
aI00
aI00
aI00
aI00
aI01
aI00
aI00
aI00
aI00
aa(lp43
I00
aI00
aI00
aI00
aI00
aI00
aI01
aI00
aI00
aI00
aI00
aI00
aI00
aI00
aI00
aI00
aI01
aI00
aa(lp44
I00
aI00
aI00
aI00
aI00
aI00
aI00
aI00
aI00
aI00
aI01
aI00
aI00
aI00
aI00
aI00
aI00
aI00
aa(lp45
I00
aI00
aI00
aI00
aI00
aI00
aI00
aI00
aI00
aI00
aI00
aI00
aI00
aI00
aI00
aI00
aI00
aI00
aa(lp46
I00
aI01
aI01
aI00
aI01
aI00
aI01
aI00
aI00
aI01
aI00
aI00
aI00
aI00
aI00
aI00
aI00
aI00
aa(lp47
I00
aI00
aI00
aI00
aI00
aI00
aI00
aI00
aI00
aI00
aI00
aI00
aI00
aI00
aI00
aI00
aI00
aI00
aa(lp48
I00
aI01
aI01
aI00
aI00
aI00
aI00
aI00
aI00
aI00
aI00
aI00
aI00
aI00
aI00
aI00
aI00
aI00
aa(lp49
I00
aI00
aI00
aI00
aI00
aI00
aI00
aI00
aI00
aI00
aI00
aI00
aI00
aI00
aI00
aI00
aI00
aI00
aa(lp50
I00
aI01
aI00
aI00
aI00
aI01
aI00
aI00
aI00
aI01
aI00
aI00
aI00
aI00
aI00
aI00
aI00
aI00
aa(lp51
I00
aI01
aI00
aI01
aI01
aI00
aI00
aI00
aI01
aI00
aI01
aI00
aI01
aI00
aI00
aI00
aI00
aI00
aa(lp52
I00
aI00
aI00
aI00
aI00
aI00
aI00
aI00
aI00
aI00
aI00
aI00
aI00
aI00
aI00
aI00
aI00
aI00
aasS'height'
p53
I18
sbsS'agentPositions'
p54
(lp55
(I00
(I1
I2
tp56
tp57
a(I00
(I32
I15
tp58
tp59
a(I00
(I1
I1
tp60
tp61
a(I00
(I32
I16
tp62
tp63
asg53
I18
sg16
I34
sS'walls'
p64
(igame
Grid
p65
(dp66
g15
I30
sg16
I34
sg17
(lp67
(lp68
I01
aI01
aI01
aI01
aI01
aI01
aI01
aI01
aI01
aI01
aI01
aI01
aI01
aI01
aI01
aI01
aI01
aI01
aa(lp69
I01
aI00
aI00
aI00
aI01
aI00
aI01
aI00
aI01
aI00
aI01
aI00
aI00
aI00
aI00
aI01
aI00
aI01
aa(lp70
I01
aI00
aI01
aI00
aI00
aI00
aI00
aI00
aI00
aI00
aI00
aI00
aI00
aI01
aI00
aI00
aI00
aI01
aa(lp71
I01
aI00
aI01
aI01
aI01
aI01
aI01
aI00
aI01
aI01
aI01
aI01
aI01
aI01
aI01
aI01
aI01
aI01
aa(lp72
I01
aI00
aI01
aI00
aI00
aI00
aI00
aI00
aI00
aI01
aI00
aI00
aI00
aI00
aI00
aI00
aI00
aI01
aa(lp73
I01
aI00
aI00
aI00
aI01
aI00
aI01
aI01
aI00
aI00
aI00
aI01
aI01
aI00
aI01
aI01
aI01
aI01
aa(lp74
I01
aI00
aI01
aI00
aI00
aI00
aI00
aI00
aI00
aI01
aI00
aI00
aI00
aI00
aI00
aI00
aI00
aI01
aa(lp75
I01
aI00
aI01
aI00
aI01
aI01
aI01
aI01
aI01
aI01
aI01
aI00
aI01
aI01
aI01
aI01
aI01
aI01
aa(lp76
I01
aI00
aI00
aI00
aI00
aI00
aI00
aI00
aI01
aI00
aI00
aI00
aI00
aI01
aI00
aI00
aI00
aI01
aa(lp77
I01
aI00
aI00
aI00
aI00
aI01
aI00
aI01
aI01
aI00
aI00
aI00
aI00
aI01
aI00
aI01
aI00
aI01
aa(lp78
I01
aI00
aI00
aI01
aI00
aI01
aI00
aI00
aI01
aI00
aI01
aI00
aI00
aI00
aI00
aI01
aI00
aI01
aa(lp79
I01
aI01
aI01
aI01
aI00
aI01
aI00
aI00
aI00
aI00
aI01
aI00
aI00
aI01
aI00
aI01
aI00
aI01
aa(lp80
I01
aI00
aI00
aI00
aI00
aI01
aI00
aI00
aI01
aI00
aI01
aI01
aI01
aI01
aI00
aI01
aI00
aI01
aa(lp81
I01
aI00
aI01
aI01
aI01
aI01
aI01
aI01
aI01
aI00
aI01
aI00
aI00
aI00
aI00
aI00
aI00
aI01
aa(lp82
I01
aI00
aI00
aI00
aI00
aI00
aI00
aI00
aI01
aI00
aI01
aI01
aI01
aI01
aI01
aI00
aI01
aI01
aa(lp83
I01
aI01
aI01
aI01
aI00
aI01
aI01
aI01
aI01
aI01
aI01
aI00
aI00
aI00
aI01
aI00
aI00
aI01
aa(lp84
I01
aI00
aI00
aI00
aI00
aI00
aI00
aI00
aI00
aI00
aI01
aI00
aI01
aI00
aI00
aI00
aI00
aI01
aa(lp85
I01
aI00
aI00
aI00
aI00
aI01
aI00
aI01
aI00
aI00
aI00
aI00
aI00
aI00
aI00
aI00
aI00
aI01
aa(lp86
I01
aI00
aI00
aI01
aI00
aI00
aI00
aI01
aI01
aI01
aI01
aI01
aI01
aI00
aI01
aI01
aI01
aI01
aa(lp87
I01
aI01
aI00
aI01
aI01
aI01
aI01
aI01
aI00
aI01
aI00
aI00
aI00
aI00
aI00
aI00
aI00
aI01
aa(lp88
I01
aI00
aI00
aI00
aI00
aI00
aI00
aI01
aI00
aI01
aI01
aI01
aI01
aI01
aI01
aI01
aI00
aI01
aa(lp89
I01
aI00
aI01
aI00
aI01
aI01
aI01
aI01
aI00
aI01
aI00
aI00
aI01
aI00
aI00
aI00
aI00
aI01
aa(lp90
I01
aI00
aI01
aI00
aI01
aI00
aI00
aI01
aI00
aI00
aI00
aI00
aI01
aI00
aI01
aI01
aI01
aI01
aa(lp91
I01
aI00
aI01
aI00
aI00
aI00
aI00
aI01
aI00
aI01
aI00
aI00
aI01
aI00
aI01
aI00
aI00
aI01
aa(lp92
I01
aI00
aI01
aI00
aI01
aI00
aI00
aI00
aI00
aI01
aI01
aI00
aI01
aI00
aI00
aI00
aI00
aI01
aa(lp93
I01
aI00
aI00
aI00
aI01
aI00
aI00
aI00
aI00
aI01
aI00
aI00
aI00
aI00
aI00
aI00
aI00
aI01
aa(lp94
I01
aI01
aI01
aI01
aI01
aI01
aI00
aI01
aI01
aI01
aI01
aI01
aI01
aI01
aI00
aI01
aI00
aI01
aa(lp95
I01
aI00
aI00
aI00
aI00
aI00
aI00
aI00
aI01
aI00
aI00
aI00
aI00
aI00
aI00
aI01
aI00
aI01
aa(lp96
I01
aI01
aI01
aI01
aI00
aI01
aI01
aI00
aI00
aI00
aI01
aI01
aI00
aI01
aI00
aI00
aI00
aI01
aa(lp97
I01
aI00
aI00
aI00
aI00
aI00
aI00
aI00
aI01
aI00
aI00
aI00
aI00
aI00
aI00
aI01
aI00
aI01
aa(lp98
I01
aI01
aI01
aI01
aI01
aI01
aI01
aI01
aI01
aI01
aI00
aI01
aI01
aI01
aI01
aI01
aI00
aI01
aa(lp99
I01
aI00
aI00
aI00
aI01
aI00
aI00
aI00
aI00
aI00
aI00
aI00
aI00
aI00
aI00
aI01
aI00
aI01
aa(lp100
I01
aI00
aI01
aI00
aI00
aI00
aI00
aI01
aI00
aI01
aI00
aI01
aI00
aI01
aI00
aI00
aI00
aI01
aa(lp101
I01
aI01
aI01
aI01
aI01
aI01
aI01
aI01
aI01
aI01
aI01
aI01
aI01
aI01
aI01
aI01
aI01
aI01
aasg53
I18
sbsS'totalFood'
p102
I60
sS'layoutText'
p103
(lp104
S'%%%%%%%%%%%%%%%%%%%%%%%%%%%%%%%%%%'
p105
aS'%..%.%.%   .  %   %   % .       4%'
p106
aS'%% %.%.% %%%%     % % %  o%% %%%2%'
p107
aS'%. % % %      %%  % % %%      %  %'
p108
aS'%.%%  .%%% %%.%     %  .  % % % %%'
p109
aS'% .% % %    %.% % % %%%%% %   % .%'
p110
aS'%  % %.  .  %.%   %.% .  o% % % %%'
p111
aS'%% %   %  %%%%%%% %.%.  %.% %   .%'
p112
aS'%. %% %%     ..%  %%%% %%%%.  %.%%'
p113
aS'%%.%  .%%%% %%%%  %..     %% %% .%'
p114
aS'%.   % %.%  .%.% %%%%%%%  %   % %%'
p115
aS'%% % % %o  . %.%   %.%  .  .% %  %'
p116
aS'%. %   % %%%%% % % %.%    % % %. %'
p117
aS'%% % % %  .  %     %.%% %%%.  %%.%'
p118
aS'%  %      %% % %  %%      % % % .%'
p119
aS'%1%%% %%o  % % %     %%%% %.%.% %%'
p120
aS'%3       . %   %   %  .   %.%.%..%'
p121
aS'%%%%%%%%%%%%%%%%%%%%%%%%%%%%%%%%%%'
p122
asbsS'blueTeamName'
p123
S'Blue'
p124
sS'actions'
p125
(lp126
(I0
S'South'
p127
tp128
a(I1
S'North'
p129
tp130
a(I2
S'East'
p131
tp132
a(I3
S'West'
p133
tp134
a(I0
g131
tp135
a(I1
g133
tp136
a(I2
g131
tp137
a(I3
g133
tp138
a(I0
g131
tp139
a(I1
g133
tp140
a(I2
g131
tp141
a(I3
g133
tp142
a(I0
g131
tp143
a(I1
g133
tp144
a(I2
g131
tp145
a(I3
g133
tp146
a(I0
g131
tp147
a(I1
g133
tp148
a(I2
g129
tp149
a(I3
g133
tp150
a(I0
g129
tp151
a(I1
g133
tp152
a(I2
g129
tp153
a(I3
g133
tp154
a(I0
g129
tp155
a(I1
g133
tp156
a(I2
g133
tp157
a(I3
g133
tp158
a(I0
g131
tp159
a(I1
g133
tp160
a(I2
g129
tp161
a(I3
g133
tp162
a(I0
g131
tp163
a(I1
g127
tp164
a(I2
g129
tp165
a(I3
g133
tp166
a(I0
g131
tp167
a(I1
g127
tp168
a(I2
g129
tp169
a(I3
g127
tp170
a(I0
g131
tp171
a(I1
g127
tp172
a(I2
g129
tp173
a(I3
g131
tp174
a(I0
g129
tp175
a(I1
g133
tp176
a(I2
g129
tp177
a(I3
g129
tp178
a(I0
g131
tp179
a(I1
g133
tp180
a(I2
g131
tp181
a(I3
g133
tp182
a(I0
g131
tp183
a(I1
g133
tp184
a(I2
g131
tp185
a(I3
g127
tp186
a(I0
g131
tp187
a(I1
g133
tp188
a(I2
g127
tp189
a(I3
g131
tp190
a(I0
g127
tp191
a(I1
g129
tp192
a(I2
g127
tp193
a(I3
g127
tp194
a(I0
g127
tp195
a(I1
g129
tp196
a(I2
g127
tp197
a(I3
g127
tp198
a(I0
g127
tp199
a(I1
g129
tp200
a(I2
g127
tp201
a(I3
g133
tp202
a(I0
g131
tp203
a(I1
g133
tp204
a(I2
g127
tp205
a(I3
g133
tp206
a(I0
g131
tp207
a(I1
g133
tp208
a(I2
g131
tp209
a(I3
g133
tp210
a(I0
g129
tp211
a(I1
g127
tp212
a(I2
g131
tp213
a(I3
g129
tp214
a(I0
g129
tp215
a(I1
g127
tp216
a(I2
g131
tp217
a(I3
g129
tp218
a(I0
g129
tp219
a(I1
g127
tp220
a(I2
g127
tp221
a(I3
g129
tp222
a(I0
g131
tp223
a(I1
g133
tp224
a(I2
g131
tp225
a(I3
g133
tp226
a(I0
g131
tp227
a(I1
g133
tp228
a(I2
g127
tp229
a(I3
g133
tp230
a(I0
g131
tp231
a(I1
g133
tp232
a(I2
g133
tp233
a(I3
g127
tp234
a(I0
g127
tp235
a(I1
g129
tp236
a(I2
g129
tp237
a(I3
g127
tp238
a(I0
g127
tp239
a(I1
g129
tp240
a(I2
g133
tp241
a(I3
g127
tp242
a(I0
g131
tp243
a(I1
g133
tp244
a(I2
g127
tp245
a(I3
g127
tp246
a(I0
g131
tp247
a(I1
g133
tp248
a(I2
g131
tp249
a(I3
g127
tp250
a(I0
g131
tp251
a(I1
g133
tp252
a(I2
g131
tp253
a(I3
g127
tp254
a(I0
g129
tp255
a(I1
g127
tp256
a(I2
g129
tp257
a(I3
g129
tp258
a(I0
g129
tp259
a(I1
g127
tp260
a(I2
g133
tp261
a(I3
g129
tp262
a(I0
g129
tp263
a(I1
g127
tp264
a(I2
g129
tp265
a(I3
g129
tp266
a(I0
g129
tp267
a(I1
g127
tp268
a(I2
g129
tp269
a(I3
g133
tp270
a(I0
g127
tp271
a(I1
g129
tp272
a(I2
g131
tp273
a(I3
g133
tp274
a(I0
g127
tp275
a(I1
g129
tp276
a(I2
g131
tp277
a(I3
g129
tp278
a(I0
g127
tp279
a(I1
g129
tp280
a(I2
g131
tp281
a(I3
g129
tp282
a(I0
g127
tp283
a(I1
g129
tp284
a(I2
g127
tp285
a(I3
g129
tp286
a(I0
g127
tp287
a(I1
g131
tp288
a(I2
g127
tp289
a(I3
g127
tp290
a(I0
g131
tp291
a(I1
g131
tp292
a(I2
g127
tp293
a(I3
g127
tp294
a(I0
g131
tp295
a(I1
g131
tp296
a(I2
g131
tp297
a(I3
g127
tp298
a(I0
g133
tp299
a(I1
g127
tp300
a(I2
g131
tp301
a(I3
g131
tp302
a(I0
g133
tp303
a(I1
g127
tp304
a(I2
g129
tp305
a(I3
g131
tp306
a(I0
g129
tp307
a(I1
S'Stop'
p308
tp309
a(I2
g129
tp310
a(I3
g129
tp311
a(I0
g129
tp312
a(I1
g308
tp313
a(I2
g129
tp314
a(I3
g129
tp315
a(I0
g131
tp316
a(I1
g308
tp317
a(I2
g129
tp318
a(I3
g129
tp319
a(I0
g131
tp320
a(I1
g308
tp321
a(I2
g129
tp322
a(I3
g131
tp323
a(I0
g131
tp324
a(I1
g308
tp325
a(I2
g129
tp326
a(I3
g131
tp327
a(I0
g129
tp328
a(I1
g308
tp329
a(I2
g127
tp330
a(I3
g127
tp331
a(I0
g129
tp332
a(I1
g308
tp333
a(I2
g127
tp334
a(I3
g127
tp335
a(I0
g131
tp336
a(I1
g308
tp337
a(I2
g127
tp338
a(I3
g127
tp339
a(I0
g129
tp340
a(I1
g308
tp341
a(I2
g131
tp342
a(I3
g131
tp343
a(I0
g131
tp344
a(I1
g308
tp345
a(I2
g131
tp346
a(I3
g131
tp347
a(I0
g131
tp348
a(I1
g308
tp349
a(I2
g129
tp350
a(I3
g131
tp351
a(I0
g131
tp352
a(I1
g308
tp353
a(I2
g129
tp354
a(I3
g129
tp355
a(I0
g127
tp356
a(I1
g308
tp357
a(I2
g129
tp358
a(I3
g131
tp359
a(I0
g127
tp360
a(I1
g308
tp361
a(I2
g129
tp362
a(I3
g127
tp363
a(I0
g127
tp364
a(I1
g308
tp365
a(I2
g129
tp366
a(I3
g127
tp367
a(I0
g127
tp368
a(I1
g308
tp369
a(I2
g127
tp370
a(I3
g127
tp371
a(I0
g127
tp372
a(I1
g308
tp373
a(I2
g129
tp374
a(I3
g133
tp375
a(I0
g129
tp376
a(I1
g308
tp377
a(I2
g127
tp378
a(I3
g133
tp379
a(I0
g129
tp380
a(I1
g308
tp381
a(I2
g129
tp382
a(I3
g133
tp383
a(I0
g129
tp384
a(I1
g308
tp385
a(I2
g127
tp386
a(I3
g133
tp387
a(I0
g131
tp388
a(I1
g308
tp389
a(I2
g129
tp390
a(I3
g127
tp391
a(I0
g131
tp392
a(I1
g308
tp393
a(I2
g127
tp394
a(I3
g131
tp395
a(I0
g127
tp396
a(I1
g308
tp397
a(I2
g129
tp398
a(I3
g129
tp399
a(I0
g127
tp400
a(I1
g308
tp401
a(I2
g127
tp402
a(I3
g131
tp403
a(I0
g127
tp404
a(I1
g308
tp405
a(I2
g129
tp406
a(I3
g127
tp407
a(I0
g129
tp408
a(I1
g308
tp409
a(I2
g127
tp410
a(I3
g133
tp411
a(I0
g129
tp412
a(I1
g308
tp413
a(I2
g129
tp414
a(I3
g129
tp415
a(I0
g129
tp416
a(I1
g308
tp417
a(I2
g127
tp418
a(I3
g133
tp419
a(I0
g129
tp420
a(I1
g308
tp421
a(I2
g129
tp422
a(I3
g127
tp423
a(I0
g129
tp424
a(I1
g308
tp425
a(I2
g127
tp426
a(I3
g131
tp427
a(I0
g129
tp428
a(I1
g308
tp429
a(I2
g129
tp430
a(I3
g129
tp431
a(I0
g133
tp432
a(I1
g308
tp433
a(I2
g127
tp434
a(I3
g131
tp435
a(I0
g129
tp436
a(I1
g308
tp437
a(I2
g129
tp438
a(I3
g127
tp439
a(I0
g129
tp440
a(I1
g308
tp441
a(I2
g127
tp442
a(I3
g133
tp443
a(I0
g133
tp444
a(I1
g308
tp445
a(I2
g129
tp446
a(I3
g133
tp447
a(I0
g131
tp448
a(I1
g308
tp449
a(I2
g127
tp450
a(I3
g129
tp451
a(I0
g131
tp452
a(I1
g308
tp453
a(I2
g129
tp454
a(I3
g131
tp455
a(I0
g129
tp456
a(I1
g308
tp457
a(I2
g127
tp458
a(I3
g131
tp459
a(I0
g131
tp460
a(I1
g308
tp461
a(I2
g129
tp462
a(I3
g131
tp463
a(I0
g131
tp464
a(I1
g308
tp465
a(I2
g127
tp466
a(I3
g131
tp467
a(I0
g127
tp468
a(I1
g308
tp469
a(I2
g129
tp470
a(I3
g127
tp471
a(I0
g129
tp472
a(I1
g308
tp473
a(I2
g127
tp474
a(I3
g129
tp475
a(I0
g131
tp476
a(I1
g308
tp477
a(I2
g129
tp478
a(I3
g133
tp479
a(I0
g133
tp480
a(I1
g308
tp481
a(I2
g127
tp482
a(I3
g133
tp483
a(I0
g129
tp484
a(I1
g308
tp485
a(I2
g129
tp486
a(I3
g133
tp487
a(I0
g129
tp488
a(I1
g308
tp489
a(I2
g127
tp490
a(I3
g127
tp491
a(I0
g131
tp492
a(I1
g308
tp493
a(I2
g129
tp494
a(I3
g133
tp495
a(I0
g133
tp496
a(I1
g308
tp497
a(I2
g127
tp498
a(I3
g129
tp499
a(I0
g127
tp500
a(I1
g308
tp501
a(I2
g129
tp502
a(I3
g131
tp503
a(I0
g127
tp504
a(I1
g308
tp505
a(I2
g127
tp506
a(I3
g131
tp507
a(I0
g127
tp508
a(I1
g308
tp509
a(I2
g129
tp510
a(I3
g131
tp511
a(I0
g127
tp512
a(I1
g308
tp513
a(I2
g127
tp514
a(I3
g131
tp515
a(I0
g131
tp516
a(I1
g308
tp517
a(I2
g129
tp518
a(I3
g129
tp519
a(I0
g133
tp520
a(I1
g308
tp521
a(I2
g127
tp522
a(I3
g129
tp523
a(I0
g127
tp524
a(I1
g308
tp525
a(I2
g129
tp526
a(I3
g133
tp527
a(I0
g127
tp528
a(I1
g308
tp529
a(I2
g127
tp530
a(I3
g133
tp531
a(I0
g127
tp532
a(I1
g308
tp533
a(I2
g129
tp534
a(I3
g133
tp535
a(I0
g131
tp536
a(I1
g308
tp537
a(I2
g127
tp538
a(I3
g133
tp539
a(I0
g127
tp540
a(I1
g308
tp541
a(I2
g129
tp542
a(I3
g129
tp543
a(I0
g127
tp544
a(I1
g308
tp545
a(I2
g127
tp546
a(I3
g129
tp547
a(I0
g133
tp548
a(I1
g308
tp549
a(I2
g129
tp550
a(I3
g129
tp551
a(I0
g127
tp552
a(I1
g308
tp553
a(I2
g127
tp554
a(I3
g133
tp555
a(I0
g127
tp556
a(I1
g308
tp557
a(I2
g129
tp558
a(I3
g133
tp559
a(I0
g131
tp560
a(I1
g308
tp561
a(I2
g127
tp562
a(I3
g127
tp563
a(I0
g133
tp564
a(I1
g308
tp565
a(I2
g129
tp566
a(I3
g127
tp567
a(I0
g129
tp568
a(I1
g308
tp569
a(I2
g127
tp570
a(I3
g127
tp571
a(I0
g129
tp572
a(I1
g308
tp573
a(I2
g129
tp574
a(I3
g133
tp575
a(I0
g131
tp576
a(I1
g308
tp577
a(I2
g127
tp578
a(I3
g133
tp579
a(I0
g129
tp580
a(I1
g308
tp581
a(I2
g129
tp582
a(I3
g127
tp583
a(I0
g129
tp584
a(I1
g308
tp585
a(I2
g127
tp586
a(I3
g127
tp587
a(I0
g133
tp588
a(I1
g308
tp589
a(I2
g129
tp590
a(I3
g127
tp591
a(I0
g129
tp592
a(I1
g308
tp593
a(I2
g127
tp594
a(I3
g127
tp595
a(I0
g129
tp596
a(I1
g308
tp597
a(I2
g129
tp598
a(I3
g127
tp599
a(I0
g129
tp600
a(I1
g308
tp601
a(I2
g127
tp602
a(I3
g133
tp603
a(I0
g129
tp604
a(I1
g308
tp605
a(I2
g129
tp606
a(I3
g133
tp607
a(I0
g129
tp608
a(I1
g308
tp609
a(I2
g127
tp610
a(I3
g133
tp611
a(I0
g133
tp612
a(I1
g308
tp613
a(I2
g129
tp614
a(I3
g133
tp615
a(I0
g133
tp616
a(I1
g308
tp617
a(I2
g127
tp618
a(I3
g133
tp619
a(I0
g129
tp620
a(I1
g308
tp621
a(I2
g129
tp622
a(I3
g133
tp623
a(I0
g129
tp624
a(I1
g308
tp625
a(I2
g127
tp626
a(I3
g133
tp627
a(I0
g133
tp628
a(I1
g308
tp629
a(I2
g129
tp630
a(I3
g133
tp631
a(I0
g133
tp632
a(I1
g308
tp633
a(I2
g127
tp634
a(I3
g127
tp635
a(I0
g129
tp636
a(I1
g131
tp637
a(I2
g127
tp638
a(I3
g127
tp639
a(I0
g129
tp640
a(I1
g131
tp641
a(I2
g127
tp642
a(I3
g131
tp643
a(I0
g308
tp644
a(I1
g131
tp645
a(I2
g127
tp646
a(I3
g131
tp647
a(I0
g129
tp648
a(I1
g133
tp649
a(I2
g127
tp650
a(I3
g131
tp651
a(I0
g131
tp652
a(I1
g133
tp653
a(I2
g133
tp654
a(I3
g131
tp655
a(I0
g129
tp656
a(I1
g129
tp657
a(I2
g133
tp658
a(I3
g127
tp659
a(I0
g129
tp660
a(I1
g129
tp661
a(I2
g129
tp662
a(I3
g127
tp663
a(I0
g129
tp664
a(I1
g133
tp665
a(I2
g129
tp666
a(I3
g127
tp667
a(I0
g129
tp668
a(I1
g133
tp669
a(I2
g129
tp670
a(I3
g127
tp671
a(I0
g131
tp672
a(I1
g133
tp673
a(I2
g127
tp674
a(I3
g127
tp675
a(I0
g131
tp676
a(I1
g133
tp677
a(I2
g127
tp678
a(I3
g133
tp679
a(I0
g129
tp680
a(I1
g129
tp681
a(I2
g127
tp682
a(I3
g127
tp683
a(I0
g131
tp684
a(I1
g133
tp685
a(I2
g127
tp686
a(I3
g127
tp687
a(I0
g129
tp688
a(I1
g133
tp689
a(I2
g127
tp690
a(I3
g133
tp691
a(I0
g129
tp692
a(I1
g133
tp693
a(I2
g127
tp694
a(I3
g127
tp695
a(I0
g131
tp696
a(I1
g133
tp697
a(I2
g133
tp698
a(I3
g127
tp699
a(I0
g129
tp700
a(I1
g133
tp701
a(I2
g133
tp702
a(I3
g127
tp703
a(I0
g131
tp704
a(I1
g127
tp705
a(I2
g129
tp706
a(I3
g131
tp707
a(I0
g131
tp708
a(I1
g127
tp709
a(I2
g129
tp710
a(I3
g131
tp711
a(I0
g129
tp712
a(I1
g131
tp713
a(I2
g129
tp714
a(I3
g127
tp715
a(I0
g131
tp716
a(I1
g133
tp717
a(I2
g133
tp718
a(I3
g127
tp719
a(I0
g131
tp720
a(I1
g129
tp721
a(I2
g133
tp722
a(I3
g127
tp723
a(I0
g129
tp724
a(I1
g129
tp725
a(I2
g133
tp726
a(I3
g129
tp727
a(I0
g129
tp728
a(I1
g131
tp729
a(I2
g133
tp730
a(I3
g129
tp731
a(I0
g131
tp732
a(I1
g133
tp733
a(I2
g129
tp734
a(I3
g129
tp735
a(I0
g131
tp736
a(I1
g127
tp737
a(I2
g129
tp738
a(I3
g129
tp739
a(I0
g131
tp740
a(I1
g127
tp741
a(I2
g131
tp742
a(I3
g129
tp743
a(I0
g129
tp744
a(I1
g131
tp745
a(I2
g131
tp746
a(I3
g129
tp747
a(I0
g131
tp748
a(I1
g131
tp749
a(I2
g131
tp750
a(I3
g133
tp751
a(I0
g131
tp752
a(I1
g127
tp753
a(I2
g131
tp754
a(I3
g129
tp755
a(I0
g131
tp756
a(I1
g127
tp757
a(I2
g129
tp758
a(I3
g129
tp759
a(I0
g127
tp760
a(I1
g127
tp761
a(I2
g133
tp762
a(I3
g133
tp763
a(I0
g127
tp764
a(I1
g133
tp765
a(I2
g127
tp766
a(I3
g129
tp767
a(I0
g131
tp768
a(I1
g133
tp769
a(I2
g131
tp770
a(I3
g129
tp771
a(I0
g131
tp772
a(I1
g133
tp773
a(I2
g129
tp774
a(I3
g129
tp775
a(I0
g131
tp776
a(I1
g308
tp777
a(I2
g133
tp778
a(I3
g131
tp779
a(I0
g127
tp780
a(I1
g308
tp781
a(I2
g133
tp782
a(I3
g131
tp783
a(I0
g127
tp784
a(I1
g308
tp785
a(I2
g127
tp786
a(I3
g127
tp787
a(I0
g127
tp788
a(I1
g308
tp789
a(I2
g131
tp790
a(I3
g127
tp791
a(I0
g129
tp792
a(I1
g308
tp793
a(I2
g129
tp794
a(I3
g127
tp795
a(I0
g129
tp796
a(I1
g308
tp797
a(I2
g133
tp798
a(I3
g133
tp799
a(I0
g129
tp800
a(I1
g308
tp801
a(I2
g127
tp802
a(I3
g127
tp803
a(I0
g129
tp804
a(I1
g308
tp805
a(I2
g133
tp806
a(I3
g127
tp807
a(I0
g129
tp808
a(I1
g308
tp809
a(I2
g133
tp810
a(I3
g131
tp811
a(I0
g129
tp812
a(I1
g308
tp813
a(I2
g129
tp814
a(I3
g127
tp815
a(I0
g131
tp816
a(I1
g308
tp817
a(I2
g127
tp818
a(I3
g127
tp819
a(I0
g131
tp820
a(I1
g308
tp821
a(I2
g127
tp822
a(I3
g127
tp823
a(I0
g127
tp824
a(I1
g308
tp825
a(I2
g127
tp826
a(I3
g127
tp827
a(I0
g127
tp828
a(I1
g308
tp829
a(I2
g127
tp830
a(I3
g127
tp831
a(I0
g127
tp832
a(I1
g308
tp833
a(I2
g133
tp834
a(I3
g127
tp835
a(I0
g131
tp836
a(I1
g308
tp837
a(I2
g133
tp838
a(I3
g129
tp839
a(I0
g131
tp840
a(I1
g308
tp841
a(I2
g133
tp842
a(I3
g129
tp843
a(I0
g131
tp844
a(I1
g308
tp845
a(I2
g127
tp846
a(I3
g129
tp847
a(I0
g129
tp848
a(I1
g308
tp849
a(I2
g127
tp850
a(I3
g129
tp851
a(I0
g129
tp852
a(I1
g133
tp853
a(I2
g133
tp854
a(I3
g129
tp855
a(I0
g129
tp856
a(I1
g131
tp857
a(I2
g133
tp858
a(I3
g129
tp859
a(I0
g131
tp860
a(I1
g131
tp861
a(I2
g133
tp862
a(I3
g133
tp863
a(I0
g131
tp864
a(I1
g131
tp865
a(I2
g133
tp866
a(I3
g129
tp867
a(I0
g131
tp868
a(I1
g129
tp869
a(I2
g129
tp870
a(I3
g129
tp871
a(I0
g131
tp872
a(I1
g131
tp873
a(I2
g129
tp874
a(I3
g131
tp875
a(I0
g127
tp876
a(I1
g129
tp877
a(I2
g131
tp878
a(I3
g129
tp879
a(I0
g127
tp880
a(I1
g129
tp881
a(I2
g129
tp882
a(I3
g129
tp883
a(I0
g131
tp884
a(I1
g131
tp885
a(I2
g129
tp886
a(I3
g129
tp887
a(I0
g127
tp888
a(I1
g131
tp889
a(I2
g133
tp890
a(I3
g129
tp891
a(I0
g129
tp892
a(I1
g131
tp893
a(I2
g131
tp894
a(I3
g129
tp895
a(I0
g131
tp896
a(I1
g129
tp897
a(I2
g127
tp898
a(I3
g133
tp899
a(I0
g129
tp900
a(I1
g131
tp901
a(I2
g127
tp902
a(I3
g129
tp903
a(I0
g129
tp904
a(I1
g131
tp905
a(I2
g133
tp906
a(I3
g129
tp907
a(I0
g129
tp908
a(I1
g131
tp909
a(I2
g127
tp910
a(I3
g131
tp911
a(I0
g129
tp912
a(I1
g131
tp913
a(I2
g127
tp914
a(I3
g131
tp915
a(I0
g131
tp916
a(I1
g127
tp917
a(I2
g131
tp918
a(I3
g131
tp919
a(I0
g131
tp920
a(I1
g127
tp921
a(I2
g131
tp922
a(I3
g131
tp923
a(I0
g129
tp924
a(I1
g127
tp925
a(I2
g131
tp926
a(I3
g127
tp927
a(I0
g131
tp928
a(I1
g127
tp929
a(I2
g131
tp930
a(I3
g127
tp931
a(I0
g129
tp932
a(I1
g127
tp933
a(I2
g129
tp934
a(I3
g133
tp935
a(I0
g129
tp936
a(I1
g127
tp937
a(I2
g129
tp938
a(I3
g127
tp939
a(I0
g131
tp940
a(I1
g133
tp941
a(I2
g131
tp942
a(I3
g127
tp943
a(I0
g129
tp944
a(I1
g127
tp945
a(I2
g131
tp946
a(I3
g131
tp947
a(I0
g131
tp948
a(I1
g127
tp949
a(I2
g131
tp950
a(I3
g133
tp951
a(I0
g131
tp952
a(I1
g127
tp953
a(I2
g131
tp954
a(I3
g127
tp955
a(I0
g131
tp956
a(I1
g127
tp957
a(I2
g127
tp958
a(I3
g127
tp959
a(I0
g129
tp960
a(I1
g127
tp961
a(I2
g133
tp962
a(I3
g127
tp963
a(I0
g131
tp964
a(I1
g133
tp965
a(I2
g127
tp966
a(I3
g127
tp967
a(I0
g129
tp968
a(I1
g133
tp969
a(I2
g133
tp970
a(I3
g127
tp971
a(I0
g129
tp972
a(I1
g129
tp973
a(I2
g133
tp974
a(I3
g127
tp975
a(I0
g131
tp976
a(I1
g129
tp977
a(I2
g133
tp978
a(I3
g127
tp979
a(I0
g131
tp980
a(I1
g129
tp981
a(I2
g133
tp982
a(I3
g131
tp983
a(I0
g131
tp984
a(I1
g127
tp985
a(I2
g133
tp986
a(I3
g129
tp987
a(I0
g129
tp988
a(I1
g127
tp989
a(I2
g133
tp990
a(I3
g133
tp991
a(I0
g131
tp992
a(I1
g127
tp993
a(I2
g133
tp994
a(I3
g129
tp995
a(I0
g131
tp996
a(I1
g127
tp997
a(I2
g129
tp998
a(I3
g129
tp999
a(I0
g131
tp1000
a(I1
g127
tp1001
a(I2
g129
tp1002
a(I3
g131
tp1003
a(I0
g127
tp1004
a(I1
g127
tp1005
a(I2
g131
tp1006
a(I3
g133
tp1007
a(I0
g131
tp1008
a(I1
g133
tp1009
a(I2
g129
tp1010
a(I3
g127
tp1011
a(I0
g127
tp1012
a(I1
g133
tp1013
a(I2
g129
tp1014
a(I3
g127
tp1015
a(I0
g131
tp1016
a(I1
g129
tp1017
a(I2
g129
tp1018
a(I3
g127
tp1019
a(I0
g131
tp1020
a(I1
g129
tp1021
a(I2
g129
tp1022
a(I3
g131
tp1023
a(I0
g129
tp1024
a(I1
g129
tp1025
a(I2
g129
tp1026
a(I3
g127
tp1027
a(I0
g129
tp1028
a(I1
g133
tp1029
a(I2
g129
tp1030
a(I3
g127
tp1031
a(I0
g129
tp1032
a(I1
g308
tp1033
a(I2
g129
tp1034
a(I3
g133
tp1035
a(I0
g131
tp1036
a(I1
g308
tp1037
a(I2
g129
tp1038
a(I3
g127
tp1039
a(I0
g131
tp1040
a(I1
g308
tp1041
a(I2
g129
tp1042
a(I3
g127
tp1043
a(I0
g127
tp1044
a(I1
g308
tp1045
a(I2
g133
tp1046
a(I3
g131
tp1047
a(I0
g127
tp1048
a(I1
g308
tp1049
a(I2
g129
tp1050
a(I3
g133
tp1051
a(I0
g127
tp1052
a(I1
g308
tp1053
a(I2
g129
tp1054
a(I3
g129
tp1055
a(I0
g131
tp1056
a(I1
g308
tp1057
a(I2
g131
tp1058
a(I3
g129
tp1059
a(I0
g131
tp1060
a(I1
g308
tp1061
a(I2
g129
tp1062
a(I3
g131
tp1063
a(I0
g131
tp1064
a(I1
g308
tp1065
a(I2
g129
tp1066
a(I3
g129
tp1067
a(I0
g131
tp1068
a(I1
g308
tp1069
a(I2
g133
tp1070
a(I3
g129
tp1071
a(I0
g129
tp1072
a(I1
g308
tp1073
a(I2
g131
tp1074
a(I3
g133
tp1075
a(I0
g131
tp1076
a(I1
g308
tp1077
a(I2
g127
tp1078
a(I3
g129
tp1079
a(I0
g131
tp1080
a(I1
g308
tp1081
a(I2
g127
tp1082
a(I3
g129
tp1083
a(I0
g127
tp1084
a(I1
g308
tp1085
a(I2
g133
tp1086
a(I3
g129
tp1087
a(I0
g127
tp1088
a(I1
g308
tp1089
a(I2
g127
tp1090
a(I3
g131
tp1091
a(I0
g127
tp1092
a(I1
g308
tp1093
a(I2
g127
tp1094
a(I3
g133
tp1095
a(I0
g127
tp1096
a(I1
g308
tp1097
a(I2
g127
tp1098
a(I3
g127
tp1099
a(I0
g129
tp1100
a(I1
g308
tp1101
a(I2
g131
tp1102
a(I3
g127
tp1103
a(I0
g129
tp1104
a(I1
g308
tp1105
a(I2
g127
tp1106
a(I3
g127
tp1107
a(I0
g131
tp1108
a(I1
g133
tp1109
a(I2
g127
tp1110
a(I3
g131
tp1111
a(I0
g131
tp1112
a(I1
g131
tp1113
a(I2
g127
tp1114
a(I3
g129
tp1115
a(I0
g127
tp1116
a(I1
g131
tp1117
a(I2
g127
tp1118
a(I3
g133
tp1119
a(I0
g127
tp1120
a(I1
g127
tp1121
a(I2
g133
tp1122
a(I3
g127
tp1123
a(I0
g131
tp1124
a(I1
g127
tp1125
a(I2
g131
tp1126
a(I3
g131
tp1127
a(I0
g131
tp1128
a(I1
g127
tp1129
a(I2
g131
tp1130
a(I3
g129
tp1131
a(I0
g129
tp1132
a(I1
g131
tp1133
a(I2
g131
tp1134
a(I3
g133
tp1135
a(I0
g129
tp1136
a(I1
g131
tp1137
a(I2
g129
tp1138
a(I3
g127
tp1139
a(I0
g129
tp1140
a(I1
g129
tp1141
a(I2
g131
tp1142
a(I3
g131
tp1143
a(I0
g129
tp1144
a(I1
g129
tp1145
a(I2
g131
tp1146
a(I3
g127
tp1147
a(I0
g131
tp1148
a(I1
g129
tp1149
a(I2
g127
tp1150
a(I3
g127
tp1151
a(I0
g129
tp1152
a(I1
g131
tp1153
a(I2
g127
tp1154
a(I3
g133
tp1155
a(I0
g129
tp1156
a(I1
g131
tp1157
a(I2
g127
tp1158
a(I3
g127
tp1159
a(I0
g133
tp1160
a(I1
g127
tp1161
a(I2
g127
tp1162
a(I3
g127
tp1163
a(I0
g133
tp1164
a(I1
g127
tp1165
a(I2
g127
tp1166
a(I3
g131
tp1167
a(I0
g133
tp1168
a(I1
g308
tp1169
a(I2
g133
tp1170
a(I3
g133
tp1171
a(I0
g133
tp1172
a(I1
g308
tp1173
a(I2
g127
tp1174
a(I3
g129
tp1175
a(I0
g127
tp1176
a(I1
g308
tp1177
a(I2
g127
tp1178
a(I3
g129
tp1179
a(I0
g127
tp1180
a(I1
g308
tp1181
a(I2
g131
tp1182
a(I3
g131
tp1183
a(I0
g131
tp1184
a(I1
g308
tp1185
a(I2
g131
tp1186
a(I3
g129
tp1187
a(I0
g133
tp1188
a(I1
g308
tp1189
a(I2
g131
tp1190
a(I3
g129
tp1191
a(I0
g129
tp1192
a(I1
g308
tp1193
a(I2
g131
tp1194
a(I3
g133
tp1195
a(I0
g129
tp1196
a(I1
g308
tp1197
a(I2
g131
tp1198
a(I3
g129
tp1199
a(I0
g133
tp1200
a(I1
g308
tp1201
a(I2
g129
tp1202
a(I3
g131
tp1203
a(I0
g133
tp1204
a(I1
g308
tp1205
a(I2
g133
tp1206
a(I3
g127
tp1207
a(I0
g133
tp1208
a(I1
g308
tp1209
a(I2
g129
tp1210
a(I3
g127
tp1211
a(I0
g127
tp1212
a(I1
g308
tp1213
a(I2
g129
tp1214
a(I3
g127
tp1215
a(I0
g127
tp1216
a(I1
g308
tp1217
a(I2
g133
tp1218
a(I3
g133
tp1219
a(I0
g127
tp1220
a(I1
g308
tp1221
a(I2
g129
tp1222
a(I3
g127
tp1223
a(I0
g127
tp1224
a(I1
g308
tp1225
a(I2
g129
tp1226
a(I3
g127
tp1227
a(I0
g127
tp1228
a(I1
g308
tp1229
a(I2
g131
tp1230
a(I3
g131
tp1231
a(I0
g133
tp1232
a(I1
g308
tp1233
a(I2
g131
tp1234
a(I3
g133
tp1235
a(I0
g133
tp1236
a(I1
g308
tp1237
a(I2
g129
tp1238
a(I3
g129
tp1239
a(I0
g133
tp1240
a(I1
g308
tp1241
a(I2
g131
tp1242
a(I3
g129
tp1243
a(I0
g127
tp1244
a(I1
g308
tp1245
a(I2
g127
tp1246
a(I3
g131
tp1247
a(I0
g133
tp1248
a(I1
g308
tp1249
a(I2
g133
tp1250
a(I3
g129
tp1251
a(I0
g131
tp1252
a(I1
g308
tp1253
a(I2
g133
tp1254
a(I3
g129
tp1255
a(I0
g127
tp1256
a(I1
g308
tp1257
a(I2
g133
tp1258
a(I3
g129
tp1259
a(I0
g127
tp1260
a(I1
g308
tp1261
a(I2
g127
tp1262
a(I3
g133
tp1263
a(I0
g133
tp1264
a(I1
g308
tp1265
a(I2
g127
tp1266
a(I3
g127
tp1267
a(I0
g133
tp1268
a(I1
g308
tp1269
a(I2
g127
tp1270
a(I3
g131
tp1271
a(I0
g131
tp1272
a(I1
g308
tp1273
a(I2
g133
tp1274
a(I3
g127
tp1275
a(I0
g131
tp1276
a(I1
g308
tp1277
a(I2
g133
tp1278
a(I3
g127
tp1279
a(I0
g131
tp1280
a(I1
g308
tp1281
a(I2
g133
tp1282
a(I3
g133
tp1283
a(I0
g131
tp1284
a(I1
g308
tp1285
a(I2
g127
tp1286
a(I3
g127
tp1287
a(I0
g127
tp1288
a(I1
g308
tp1289
a(I2
g127
tp1290
a(I3
g127
tp1291
a(I0
g127
tp1292
a(I1
g308
tp1293
a(I2
g133
tp1294
a(I3
g131
tp1295
a(I0
g133
tp1296
a(I1
g308
tp1297
a(I2
g133
tp1298
a(I3
g133
tp1299
a(I0
g127
tp1300
a(I1
g308
tp1301
a(I2
g133
tp1302
a(I3
g129
tp1303
a(I0
g127
tp1304
a(I1
g308
tp1305
a(I2
g133
tp1306
a(I3
g129
tp1307
a(I0
g127
tp1308
a(I1
g308
tp1309
a(I2
g308
tp1310
a(I3
g131
tp1311
a(I0
g133
tp1312
a(I1
g308
tp1313
a(I2
g308
tp1314
a(I3
g129
tp1315
a(I0
g133
tp1316
a(I1
g308
tp1317
a(I2
g308
tp1318
a(I3
g129
tp1319
a(I0
g133
tp1320
a(I1
g131
tp1321
a(I2
g308
tp1322
a(I3
g129
tp1323
a(I0
g127
tp1324
a(I1
g131
tp1325
a(I2
g308
tp1326
a(I3
g133
tp1327
a(I0
g133
tp1328
a(I1
g308
tp1329
a(I2
g308
tp1330
a(I3
g129
tp1331
asS'length'
p1332
I1200
sS'agents'
p1333
(lp1334
(igame
Agent
p1335
(dp1336
S'index'
p1337
I0
sba(igame
Agent
p1338
(dp1339
g1337
I0
sba(igame
Agent
p1340
(dp1341
g1337
I0
sba(igame
Agent
p1342
(dp1343
g1337
I0
sbasS'redTeamName'
p1344
S'Red'
p1345
s.