(dp1
S'layout'
p2
(ilayout
Layout
p3
(dp4
S'capsules'
p5
(lp6
(I27
I1
tp7
a(I9
I7
tp8
a(I24
I10
tp9
a(I6
I16
tp10
asS'numGhosts'
p11
I4
sS'food'
p12
(igame
Grid
p13
(dp14
S'CELLS_PER_INT'
p15
I30
sS'width'
p16
I34
sS'data'
p17
(lp18
(lp19
I00
aI00
aI00
aI00
aI00
aI00
aI00
aI00
aI00
aI00
aI00
aI00
aI00
aI00
aI00
aI00
aI00
aI00
aa(lp20
I00
aI00
aI00
aI00
aI00
aI00
aI01
aI00
aI00
aI00
aI00
aI01
aI00
aI01
aI00
aI00
aI00
aI00
aa(lp21
I00
aI00
aI00
aI00
aI00
aI00
aI00
aI00
aI00
aI00
aI00
aI00
aI00
aI00
aI00
aI01
aI00
aI00
aa(lp22
I00
aI00
aI00
aI00
aI00
aI00
aI00
aI00
aI00
aI00
aI00
aI00
aI00
aI00
aI00
aI00
aI01
aI00
aa(lp23
I00
aI00
aI00
aI00
aI00
aI00
aI00
aI00
aI00
aI00
aI01
aI00
aI00
aI00
aI00
aI00
aI00
aI00
aa(lp24
I00
aI00
aI00
aI00
aI00
aI00
aI00
aI01
aI00
aI00
aI01
aI00
aI00
aI00
aI00
aI00
aI00
aI00
aa(lp25
I00
aI00
aI00
aI00
aI00
aI00
aI00
aI00
aI00
aI00
aI00
aI00
aI00
aI00
aI00
aI00
aI00
aI00
aa(lp26
I00
aI00
aI00
aI01
aI01
aI00
aI00
aI00
aI00
aI00
aI00
aI00
aI00
aI00
aI00
aI01
aI00
aI00
aa(lp27
I00
aI00
aI00
aI00
aI00
aI00
aI00
aI00
aI00
aI00
aI00
aI00
aI00
aI00
aI00
aI00
aI00
aI00
aa(lp28
I00
aI00
aI01
aI00
aI00
aI01
aI00
aI00
aI00
aI00
aI00
aI00
aI01
aI01
aI00
aI01
aI01
aI00
aa(lp29
I00
aI00
aI00
aI00
aI00
aI00
aI00
aI00
aI00
aI00
aI00
aI00
aI00
aI00
aI00
aI00
aI00
aI00
aa(lp30
I00
aI01
aI00
aI00
aI00
aI00
aI00
aI00
aI00
aI00
aI01
aI01
aI00
aI01
aI00
aI00
aI00
aI00
aa(lp31
I00
aI00
aI00
aI00
aI00
aI00
aI00
aI01
aI00
aI00
aI00
aI00
aI00
aI01
aI00
aI00
aI00
aI00
aa(lp32
I00
aI01
aI00
aI00
aI00
aI01
aI01
aI00
aI00
aI01
aI00
aI01
aI00
aI00
aI00
aI00
aI00
aI00
aa(lp33
I00
aI01
aI00
aI00
aI00
aI00
aI00
aI00
aI00
aI00
aI00
aI00
aI00
aI00
aI00
aI01
aI00
aI00
aa(lp34
I00
aI00
aI00
aI00
aI00
aI00
aI00
aI00
aI00
aI00
aI00
aI00
aI00
aI00
aI00
aI00
aI00
aI00
aa(lp35
I00
aI00
aI00
aI00
aI00
aI00
aI00
aI00
aI00
aI00
aI00
aI00
aI00
aI00
aI00
aI00
aI00
aI00
aa(lp36
I00
aI00
aI00
aI00
aI00
aI00
aI00
aI00
aI00
aI00
aI00
aI00
aI00
aI00
aI00
aI00
aI00
aI00
aa(lp37
I00
aI00
aI00
aI00
aI00
aI00
aI00
aI00
aI00
aI00
aI00
aI00
aI00
aI00
aI00
aI00
aI00
aI00
aa(lp38
I00
aI00
aI01
aI00
aI00
aI00
aI00
aI00
aI00
aI00
aI00
aI00
aI00
aI00
aI00
aI00
aI01
aI00
aa(lp39
I00
aI00
aI00
aI00
aI00
aI00
aI01
aI00
aI01
aI00
aI00
aI01
aI01
aI00
aI00
aI00
aI01
aI00
aa(lp40
I00
aI00
aI00
aI00
aI01
aI00
aI00
aI00
aI00
aI00
aI01
aI00
aI00
aI00
aI00
aI00
aI00
aI00
aa(lp41
I00
aI00
aI00
aI00
aI01
aI00
aI01
aI01
aI00
aI00
aI00
aI00
aI00
aI00
aI00
aI00
aI01
aI00
aa(lp42
I00
aI00
aI00
aI00
aI00
aI00
aI00
aI00
aI00
aI00
aI00
aI00
aI00
aI00
aI00
aI00
aI00
aI00
aa(lp43
I00
aI01
aI01
aI00
aI01
aI01
aI00
aI00
aI00
aI00
aI00
aI00
aI01
aI00
aI00
aI01
aI00
aI00
aa(lp44
I00
aI00
aI00
aI00
aI00
aI00
aI00
aI00
aI00
aI00
aI00
aI00
aI00
aI00
aI00
aI00
aI00
aI00
aa(lp45
I00
aI00
aI01
aI00
aI00
aI00
aI00
aI00
aI00
aI00
aI00
aI00
aI00
aI01
aI01
aI00
aI00
aI00
aa(lp46
I00
aI00
aI00
aI00
aI00
aI00
aI00
aI00
aI00
aI00
aI00
aI00
aI00
aI00
aI00
aI00
aI00
aI00
aa(lp47
I00
aI00
aI00
aI00
aI00
aI00
aI00
aI01
aI00
aI00
aI01
aI00
aI00
aI00
aI00
aI00
aI00
aI00
aa(lp48
I00
aI00
aI00
aI00
aI00
aI00
aI00
aI01
aI00
aI00
aI00
aI00
aI00
aI00
aI00
aI00
aI00
aI00
aa(lp49
I00
aI01
aI00
aI00
aI00
aI00
aI00
aI00
aI00
aI00
aI00
aI00
aI00
aI00
aI00
aI00
aI00
aI00
aa(lp50
I00
aI00
aI01
aI00
aI00
aI00
aI00
aI00
aI00
aI00
aI00
aI00
aI00
aI00
aI00
aI00
aI00
aI00
aa(lp51
I00
aI00
aI00
aI00
aI01
aI00
aI01
aI00
aI00
aI00
aI00
aI01
aI00
aI00
aI00
aI00
aI00
aI00
aa(lp52
I00
aI00
aI00
aI00
aI00
aI00
aI00
aI00
aI00
aI00
aI00
aI00
aI00
aI00
aI00
aI00
aI00
aI00
aasS'height'
p53
I18
sbsS'agentPositions'
p54
(lp55
(I00
(I1
I2
tp56
tp57
a(I00
(I32
I15
tp58
tp59
a(I00
(I1
I1
tp60
tp61
a(I00
(I32
I16
tp62
tp63
asg53
I18
sg16
I34
sS'walls'
p64
(igame
Grid
p65
(dp66
g15
I30
sg16
I34
sg17
(lp67
(lp68
I01
aI01
aI01
aI01
aI01
aI01
aI01
aI01
aI01
aI01
aI01
aI01
aI01
aI01
aI01
aI01
aI01
aI01
aa(lp69
I01
aI00
aI00
aI00
aI01
aI00
aI00
aI01
aI00
aI00
aI00
aI00
aI01
aI00
aI01
aI00
aI00
aI01
aa(lp70
I01
aI00
aI00
aI00
aI00
aI00
aI00
aI00
aI00
aI01
aI00
aI00
aI00
aI00
aI00
aI00
aI00
aI01
aa(lp71
I01
aI01
aI01
aI01
aI01
aI01
aI00
aI01
aI01
aI01
aI01
aI01
aI01
aI01
aI01
aI00
aI00
aI01
aa(lp72
I01
aI00
aI01
aI00
aI00
aI00
aI00
aI00
aI00
aI01
aI00
aI00
aI00
aI00
aI01
aI00
aI00
aI01
aa(lp73
I01
aI00
aI01
aI00
aI00
aI01
aI00
aI00
aI00
aI01
aI00
aI01
aI00
aI00
aI01
aI00
aI00
aI01
aa(lp74
I01
aI00
aI01
aI01
aI01
aI01
aI01
aI00
aI00
aI00
aI00
aI01
aI01
aI00
aI01
aI01
aI00
aI01
aa(lp75
I01
aI00
aI01
aI00
aI00
aI00
aI00
aI00
aI00
aI01
aI00
aI00
aI00
aI00
aI01
aI00
aI00
aI01
aa(lp76
I01
aI00
aI01
aI01
aI01
aI00
aI01
aI01
aI01
aI01
aI01
aI01
aI01
aI01
aI01
aI01
aI00
aI01
aa(lp77
I01
aI00
aI00
aI00
aI00
aI00
aI00
aI00
aI00
aI00
aI00
aI00
aI00
aI00
aI01
aI00
aI00
aI01
aa(lp78
I01
aI00
aI01
aI01
aI01
aI01
aI01
aI00
aI01
aI00
aI01
aI01
aI01
aI01
aI01
aI01
aI01
aI01
aa(lp79
I01
aI00
aI00
aI00
aI00
aI00
aI00
aI00
aI00
aI00
aI00
aI00
aI01
aI00
aI01
aI00
aI00
aI01
aa(lp80
I01
aI01
aI01
aI01
aI01
aI01
aI01
aI00
aI01
aI01
aI01
aI01
aI01
aI00
aI01
aI00
aI00
aI01
aa(lp81
I01
aI00
aI00
aI00
aI00
aI00
aI00
aI00
aI00
aI00
aI01
aI00
aI01
aI00
aI00
aI00
aI00
aI01
aa(lp82
I01
aI00
aI01
aI00
aI00
aI01
aI00
aI00
aI01
aI00
aI00
aI00
aI01
aI00
aI01
aI00
aI00
aI01
aa(lp83
I01
aI01
aI01
aI01
aI00
aI01
aI01
aI01
aI01
aI01
aI01
aI00
aI01
aI00
aI01
aI01
aI01
aI01
aa(lp84
I01
aI00
aI00
aI00
aI00
aI00
aI00
aI00
aI01
aI00
aI00
aI00
aI00
aI00
aI00
aI00
aI00
aI01
aa(lp85
I01
aI00
aI00
aI00
aI00
aI00
aI00
aI00
aI00
aI01
aI00
aI00
aI00
aI00
aI00
aI00
aI00
aI01
aa(lp86
I01
aI01
aI01
aI01
aI00
aI01
aI00
aI01
aI01
aI01
aI01
aI01
aI01
aI00
aI01
aI01
aI01
aI01
aa(lp87
I01
aI00
aI00
aI01
aI00
aI01
aI00
aI00
aI00
aI01
aI00
aI00
aI01
aI00
aI00
aI01
aI00
aI01
aa(lp88
I01
aI00
aI00
aI00
aI00
aI01
aI00
aI01
aI00
aI00
aI00
aI00
aI00
aI00
aI00
aI00
aI00
aI01
aa(lp89
I01
aI00
aI00
aI01
aI00
aI01
aI01
aI01
aI01
aI01
aI00
aI01
aI01
aI01
aI01
aI01
aI01
aI01
aa(lp90
I01
aI00
aI00
aI01
aI00
aI01
aI00
aI00
aI00
aI00
aI00
aI00
aI00
aI00
aI00
aI00
aI00
aI01
aa(lp91
I01
aI01
aI01
aI01
aI01
aI01
aI01
aI01
aI00
aI01
aI00
aI01
aI01
aI01
aI01
aI01
aI00
aI01
aa(lp92
I01
aI00
aI00
aI01
aI00
aI00
aI00
aI00
aI00
aI00
aI00
aI00
aI00
aI00
aI00
aI00
aI00
aI01
aa(lp93
I01
aI00
aI01
aI01
aI01
aI01
aI01
aI01
aI01
aI01
aI01
aI01
aI00
aI01
aI01
aI01
aI00
aI01
aa(lp94
I01
aI00
aI00
aI01
aI00
aI00
aI00
aI00
aI01
aI00
aI00
aI00
aI00
aI00
aI00
aI01
aI00
aI01
aa(lp95
I01
aI00
aI01
aI01
aI00
aI01
aI01
aI00
aI00
aI00
aI00
aI01
aI01
aI01
aI01
aI01
aI00
aI01
aa(lp96
I01
aI00
aI00
aI01
aI00
aI00
aI01
aI00
aI01
aI00
aI00
aI00
aI01
aI00
aI00
aI01
aI00
aI01
aa(lp97
I01
aI00
aI00
aI01
aI00
aI00
aI00
aI00
aI01
aI00
aI00
aI00
aI00
aI00
aI00
aI01
aI00
aI01
aa(lp98
I01
aI00
aI00
aI01
aI01
aI01
aI01
aI01
aI01
aI01
aI01
aI00
aI01
aI01
aI01
aI01
aI01
aI01
aa(lp99
I01
aI00
aI00
aI00
aI00
aI00
aI00
aI00
aI01
aI00
aI00
aI00
aI00
aI00
aI00
aI00
aI00
aI01
aa(lp100
I01
aI00
aI00
aI01
aI00
aI01
aI00
aI00
aI00
aI00
aI01
aI00
aI00
aI01
aI00
aI00
aI00
aI01
aa(lp101
I01
aI01
aI01
aI01
aI01
aI01
aI01
aI01
aI01
aI01
aI01
aI01
aI01
aI01
aI01
aI01
aI01
aI01
aasg53
I18
sbsS'totalFood'
p102
I60
sS'layoutText'
p103
(lp104
S'%%%%%%%%%%%%%%%%%%%%%%%%%%%%%%%%%%'
p105
aS'%  .  o  .%    %  %..%.       % 4%'
p106
aS'% .   %.%.%   .%  %% % %.%%%%%% 2%'
p107
aS'%% %%%%%%%%%% %%  %  % % %.%  %  %'
p108
aS'%. %    %.%..        % % %.%  % %%'
p109
aS'%% %  % %.%%%%%%  %%.% %.  %% %  %'
p110
aS'%. % %% % %.%.    % .% % % %    .%'
p111
aS'%  %..  % %.%% %  %  .  o%  . % %%'
p112
aS'% %%%% %%   %. % %%% % % %    %  %'
p113
aS'%  %    % % % %%% % .%   %% %%%% %'
p114
aS'%% % .  %o  .  %  % %%.% %  ..%  %'
p115
aS'%.    % % % %. %    .%.% % %% % .%'
p116
aS'%  % %%  .% %.%%  %%%%%%.% %  % %%'
p117
aS'%% %  %.% % %        ..%.%    % .%'
p118
aS'%  %  %.% % %  %  %% %%%%%%%%%% %%'
p119
aS'%1 %%%%%%.% % %%  %.   %.%.%   . %'
p120
aS'%3 %       .%..%  %    %.  o  .  %'
p121
aS'%%%%%%%%%%%%%%%%%%%%%%%%%%%%%%%%%%'
p122
asbsS'blueTeamName'
p123
S'Blue'
p124
sS'actions'
p125
(lp126
(I0
S'North'
p127
tp128
a(I1
S'West'
p129
tp130
a(I2
g127
tp131
a(I3
g129
tp132
a(I0
S'East'
p133
tp134
a(I1
S'South'
p135
tp136
a(I2
g133
tp137
a(I3
g135
tp138
a(I0
g127
tp139
a(I1
g135
tp140
a(I2
g135
tp141
a(I3
g133
tp142
a(I0
g127
tp143
a(I1
g135
tp144
a(I2
g129
tp145
a(I3
g135
tp146
a(I0
g127
tp147
a(I1
g135
tp148
a(I2
g127
tp149
a(I3
g129
tp150
a(I0
g133
tp151
a(I1
g129
tp152
a(I2
g127
tp153
a(I3
g135
tp154
a(I0
g133
tp155
a(I1
g129
tp156
a(I2
g133
tp157
a(I3
g135
tp158
a(I0
g127
tp159
a(I1
g135
tp160
a(I2
g135
tp161
a(I3
g133
tp162
a(I0
g133
tp163
a(I1
g129
tp164
a(I2
g129
tp165
a(I3
g135
tp166
a(I0
g133
tp167
a(I1
g129
tp168
a(I2
g135
tp169
a(I3
g129
tp170
a(I0
g133
tp171
a(I1
g129
tp172
a(I2
g133
tp173
a(I3
g135
tp174
a(I0
g135
tp175
a(I1
g127
tp176
a(I2
g127
tp177
a(I3
g135
tp178
a(I0
g135
tp179
a(I1
g127
tp180
a(I2
g129
tp181
a(I3
g133
tp182
a(I0
g133
tp183
a(I1
g129
tp184
a(I2
g127
tp185
a(I3
g135
tp186
a(I0
g133
tp187
a(I1
g129
tp188
a(I2
g133
tp189
a(I3
g135
tp190
a(I0
g127
tp191
a(I1
g135
tp192
a(I2
g127
tp193
a(I3
g129
tp194
a(I0
g127
tp195
a(I1
g135
tp196
a(I2
g127
tp197
a(I3
g135
tp198
a(I0
g133
tp199
a(I1
g129
tp200
a(I2
g127
tp201
a(I3
g135
tp202
a(I0
g133
tp203
a(I1
g129
tp204
a(I2
g129
tp205
a(I3
g135
tp206
a(I0
g133
tp207
a(I1
g129
tp208
a(I2
g135
tp209
a(I3
g133
tp210
a(I0
g133
tp211
a(I1
g129
tp212
a(I2
g133
tp213
a(I3
g129
tp214
a(I0
g135
tp215
a(I1
g127
tp216
a(I2
g127
tp217
a(I3
g135
tp218
a(I0
g135
tp219
a(I1
g127
tp220
a(I2
g129
tp221
a(I3
g135
tp222
a(I0
g135
tp223
a(I1
g127
tp224
a(I2
g135
tp225
a(I3
g133
tp226
a(I0
g133
tp227
a(I1
g129
tp228
a(I2
g133
tp229
a(I3
g135
tp230
a(I0
g133
tp231
a(I1
g129
tp232
a(I2
g127
tp233
a(I3
g129
tp234
a(I0
g133
tp235
a(I1
g129
tp236
a(I2
g127
tp237
a(I3
g129
tp238
a(I0
g133
tp239
a(I1
g129
tp240
a(I2
g127
tp241
a(I3
g127
tp242
a(I0
g133
tp243
a(I1
g129
tp244
a(I2
g129
tp245
a(I3
g133
tp246
a(I0
g133
tp247
a(I1
g129
tp248
a(I2
g127
tp249
a(I3
g133
tp250
a(I0
g133
tp251
a(I1
g129
tp252
a(I2
g127
tp253
a(I3
g135
tp254
a(I0
g133
tp255
a(I1
g129
tp256
a(I2
g133
tp257
a(I3
g129
tp258
a(I0
g133
tp259
a(I1
g129
tp260
a(I2
g127
tp261
a(I3
g127
tp262
a(I0
g129
tp263
a(I1
g133
tp264
a(I2
g127
tp265
a(I3
g133
tp266
a(I0
g129
tp267
a(I1
g133
tp268
a(I2
g127
tp269
a(I3
g135
tp270
a(I0
g135
tp271
a(I1
g127
tp272
a(I2
g127
tp273
a(I3
g129
tp274
a(I0
g135
tp275
a(I1
g127
tp276
a(I2
g127
tp277
a(I3
g129
tp278
a(I0
g129
tp279
a(I1
g133
tp280
a(I2
g127
tp281
a(I3
g127
tp282
a(I0
g133
tp283
a(I1
g129
tp284
a(I2
g133
tp285
a(I3
g129
tp286
a(I0
g127
tp287
a(I1
g135
tp288
a(I2
g135
tp289
a(I3
g135
tp290
a(I0
g127
tp291
a(I1
g135
tp292
a(I2
g133
tp293
a(I3
g129
tp294
a(I0
g129
tp295
a(I1
g133
tp296
a(I2
g127
tp297
a(I3
g129
tp298
a(I0
g129
tp299
a(I1
g133
tp300
a(I2
g129
tp301
a(I3
g129
tp302
a(I0
g129
tp303
a(I1
g133
tp304
a(I2
g129
tp305
a(I3
g129
tp306
a(I0
g127
tp307
a(I1
S'Stop'
p308
tp309
a(I2
g135
tp310
a(I3
g129
tp311
a(I0
g127
tp312
a(I1
g308
tp313
a(I2
g135
tp314
a(I3
g127
tp315
a(I0
g133
tp316
a(I1
g308
tp317
a(I2
g135
tp318
a(I3
g135
tp319
a(I0
g133
tp320
a(I1
g308
tp321
a(I2
g129
tp322
a(I3
g133
tp323
a(I0
g133
tp324
a(I1
g308
tp325
a(I2
g133
tp326
a(I3
g133
tp327
a(I0
g129
tp328
a(I1
g308
tp329
a(I2
g135
tp330
a(I3
g127
tp331
a(I0
g127
tp332
a(I1
g308
tp333
a(I2
g135
tp334
a(I3
g135
tp335
a(I0
g127
tp336
a(I1
g308
tp337
a(I2
g135
tp338
a(I3
g133
tp339
a(I0
g133
tp340
a(I1
g308
tp341
a(I2
g129
tp342
a(I3
g133
tp343
a(I0
g127
tp344
a(I1
g308
tp345
a(I2
g127
tp346
a(I3
g133
tp347
a(I0
g127
tp348
a(I1
g308
tp349
a(I2
g133
tp350
a(I3
g133
tp351
a(I0
g127
tp352
a(I1
g308
tp353
a(I2
g127
tp354
a(I3
g133
tp355
a(I0
g127
tp356
a(I1
g133
tp357
a(I2
g127
tp358
a(I3
g127
tp359
a(I0
g135
tp360
a(I1
g133
tp361
a(I2
g127
tp362
a(I3
g127
tp363
a(I0
g135
tp364
a(I1
g133
tp365
a(I2
g127
tp366
a(I3
g127
tp367
a(I0
g133
tp368
a(I1
g133
tp369
a(I2
g129
tp370
a(I3
g127
tp371
a(I0
g133
tp372
a(I1
g135
tp373
a(I2
g127
tp374
a(I3
g127
tp375
a(I0
g135
tp376
a(I1
g135
tp377
a(I2
g133
tp378
a(I3
g133
tp379
a(I0
g135
tp380
a(I1
g135
tp381
a(I2
g135
tp382
a(I3
g127
tp383
a(I0
g135
tp384
a(I1
g133
tp385
a(I2
g129
tp386
a(I3
g127
tp387
a(I0
g135
tp388
a(I1
g133
tp389
a(I2
g127
tp390
a(I3
g127
tp391
a(I0
g127
tp392
a(I1
g135
tp393
a(I2
g133
tp394
a(I3
g129
tp395
a(I0
g127
tp396
a(I1
g308
tp397
a(I2
g133
tp398
a(I3
g127
tp399
a(I0
g133
tp400
a(I1
g135
tp401
a(I2
g133
tp402
a(I3
g127
tp403
a(I0
g133
tp404
a(I1
g133
tp405
a(I2
g135
tp406
a(I3
g129
tp407
a(I0
g135
tp408
a(I1
g133
tp409
a(I2
g133
tp410
a(I3
g129
tp411
a(I0
g135
tp412
a(I1
g135
tp413
a(I2
g127
tp414
a(I3
g129
tp415
a(I0
g135
tp416
a(I1
g135
tp417
a(I2
g129
tp418
a(I3
g135
tp419
a(I0
g135
tp420
a(I1
g135
tp421
a(I2
g135
tp422
a(I3
g129
tp423
a(I0
g308
tp424
a(I1
g308
tp425
a(I2
g133
tp426
a(I3
g129
tp427
a(I0
g308
tp428
a(I1
g308
tp429
a(I2
g127
tp430
a(I3
g127
tp431
a(I0
g308
tp432
a(I1
g308
tp433
a(I2
g129
tp434
a(I3
g127
tp435
a(I0
g308
tp436
a(I1
g308
tp437
a(I2
g135
tp438
a(I3
g129
tp439
a(I0
g308
tp440
a(I1
g308
tp441
a(I2
g133
tp442
a(I3
g129
tp443
a(I0
g308
tp444
a(I1
g308
tp445
a(I2
g127
tp446
a(I3
g135
tp447
a(I0
g308
tp448
a(I1
g308
tp449
a(I2
g129
tp450
a(I3
g135
tp451
a(I0
g308
tp452
a(I1
g308
tp453
a(I2
g129
tp454
a(I3
g135
tp455
a(I0
g308
tp456
a(I1
g308
tp457
a(I2
g135
tp458
a(I3
g135
tp459
a(I0
g308
tp460
a(I1
g308
tp461
a(I2
g133
tp462
a(I3
g135
tp463
a(I0
g308
tp464
a(I1
g308
tp465
a(I2
g133
tp466
a(I3
g135
tp467
a(I0
g308
tp468
a(I1
g308
tp469
a(I2
g127
tp470
a(I3
g135
tp471
a(I0
g308
tp472
a(I1
g308
tp473
a(I2
g129
tp474
a(I3
g135
tp475
a(I0
g133
tp476
a(I1
g127
tp477
a(I2
g129
tp478
a(I3
g127
tp479
a(I0
g127
tp480
a(I1
g127
tp481
a(I2
g135
tp482
a(I3
g127
tp483
a(I0
g127
tp484
a(I1
g127
tp485
a(I2
g133
tp486
a(I3
g127
tp487
a(I0
g127
tp488
a(I1
g127
tp489
a(I2
g133
tp490
a(I3
g127
tp491
a(I0
g127
tp492
a(I1
g127
tp493
a(I2
g127
tp494
a(I3
g127
tp495
a(I0
g133
tp496
a(I1
g129
tp497
a(I2
g133
tp498
a(I3
g127
tp499
a(I0
g133
tp500
a(I1
g129
tp501
a(I2
g133
tp502
a(I3
g129
tp503
a(I0
g127
tp504
a(I1
g129
tp505
a(I2
g133
tp506
a(I3
g129
tp507
a(I0
g133
tp508
a(I1
g129
tp509
a(I2
g133
tp510
a(I3
g129
tp511
a(I0
g133
tp512
a(I1
g127
tp513
a(I2
g135
tp514
a(I3
g129
tp515
a(I0
g133
tp516
a(I1
g127
tp517
a(I2
g127
tp518
a(I3
g127
tp519
a(I0
g135
tp520
a(I1
g127
tp521
a(I2
g129
tp522
a(I3
g129
tp523
a(I0
g135
tp524
a(I1
g129
tp525
a(I2
g129
tp526
a(I3
g135
tp527
a(I0
g133
tp528
a(I1
g129
tp529
a(I2
g129
tp530
a(I3
g133
tp531
a(I0
g133
tp532
a(I1
g129
tp533
a(I2
g129
tp534
a(I3
g135
tp535
a(I0
g127
tp536
a(I1
g129
tp537
a(I2
g135
tp538
a(I3
g135
tp539
a(I0
g127
tp540
a(I1
g135
tp541
a(I2
g129
tp542
a(I3
g129
tp543
a(I0
g133
tp544
a(I1
g135
tp545
a(I2
g129
tp546
a(I3
g135
tp547
a(I0
g133
tp548
a(I1
g129
tp549
a(I2
g129
tp550
a(I3
g135
tp551
a(I0
g133
tp552
a(I1
g129
tp553
a(I2
g127
tp554
a(I3
g133
tp555
a(I0
g133
tp556
a(I1
g129
tp557
a(I2
g135
tp558
a(I3
g129
tp559
a(I0
g135
tp560
a(I1
g133
tp561
a(I2
g133
tp562
a(I3
g129
tp563
a(I0
g135
tp564
a(I1
g135
tp565
a(I2
g133
tp566
a(I3
g129
tp567
a(I0
g135
tp568
a(I1
g135
tp569
a(I2
g133
tp570
a(I3
g127
tp571
a(I0
g133
tp572
a(I1
g129
tp573
a(I2
g127
tp574
a(I3
g127
tp575
a(I0
g133
tp576
a(I1
g135
tp577
a(I2
g133
tp578
a(I3
g135
tp579
a(I0
g133
tp580
a(I1
g135
tp581
a(I2
g133
tp582
a(I3
g135
tp583
a(I0
g133
tp584
a(I1
g308
tp585
a(I2
g133
tp586
a(I3
g135
tp587
a(I0
g133
tp588
a(I1
g308
tp589
a(I2
g133
tp590
a(I3
g135
tp591
a(I0
g133
tp592
a(I1
g308
tp593
a(I2
g135
tp594
a(I3
g133
tp595
a(I0
g133
tp596
a(I1
g308
tp597
a(I2
g127
tp598
a(I3
g133
tp599
a(I0
g133
tp600
a(I1
g308
tp601
a(I2
g129
tp602
a(I3
g133
tp603
a(I0
g133
tp604
a(I1
g308
tp605
a(I2
g129
tp606
a(I3
g133
tp607
a(I0
g308
tp608
a(I1
g308
tp609
a(I2
g135
tp610
a(I3
g133
tp611
a(I0
g133
tp612
a(I1
g308
tp613
a(I2
g127
tp614
a(I3
g129
tp615
a(I0
g127
tp616
a(I1
g308
tp617
a(I2
g129
tp618
a(I3
g129
tp619
a(I0
g127
tp620
a(I1
g308
tp621
a(I2
g129
tp622
a(I3
g135
tp623
a(I0
g127
tp624
a(I1
g308
tp625
a(I2
g135
tp626
a(I3
g135
tp627
a(I0
g127
tp628
a(I1
g308
tp629
a(I2
g129
tp630
a(I3
g129
tp631
a(I0
g133
tp632
a(I1
g308
tp633
a(I2
g127
tp634
a(I3
g135
tp635
a(I0
g133
tp636
a(I1
g308
tp637
a(I2
g129
tp638
a(I3
g133
tp639
a(I0
g127
tp640
a(I1
g308
tp641
a(I2
g135
tp642
a(I3
g127
tp643
a(I0
g133
tp644
a(I1
g308
tp645
a(I2
g129
tp646
a(I3
g129
tp647
a(I0
g133
tp648
a(I1
g308
tp649
a(I2
g135
tp650
a(I3
g135
tp651
a(I0
g133
tp652
a(I1
g308
tp653
a(I2
g135
tp654
a(I3
g133
tp655
a(I0
g135
tp656
a(I1
g308
tp657
a(I2
g129
tp658
a(I3
g133
tp659
a(I0
g135
tp660
a(I1
g308
tp661
a(I2
g133
tp662
a(I3
g127
tp663
a(I0
g133
tp664
a(I1
g308
tp665
a(I2
g127
tp666
a(I3
g129
tp667
a(I0
g133
tp668
a(I1
g308
tp669
a(I2
g127
tp670
a(I3
g129
tp671
a(I0
g127
tp672
a(I1
g308
tp673
a(I2
g135
tp674
a(I3
g135
tp675
a(I0
g127
tp676
a(I1
g133
tp677
a(I2
g135
tp678
a(I3
g133
tp679
a(I0
g133
tp680
a(I1
g135
tp681
a(I2
g135
tp682
a(I3
g133
tp683
a(I0
g133
tp684
a(I1
g129
tp685
a(I2
g135
tp686
a(I3
g127
tp687
a(I0
g133
tp688
a(I1
g135
tp689
a(I2
g135
tp690
a(I3
g133
tp691
a(I0
g133
tp692
a(I1
g135
tp693
a(I2
g129
tp694
a(I3
g135
tp695
a(I0
g135
tp696
a(I1
g133
tp697
a(I2
g135
tp698
a(I3
g129
tp699
a(I0
g135
tp700
a(I1
g133
tp701
a(I2
g135
tp702
a(I3
g129
tp703
a(I0
g135
tp704
a(I1
g133
tp705
a(I2
g133
tp706
a(I3
g127
tp707
a(I0
g133
tp708
a(I1
g308
tp709
a(I2
g135
tp710
a(I3
g127
tp711
a(I0
g133
tp712
a(I1
g129
tp713
a(I2
g135
tp714
a(I3
g127
tp715
a(I0
g133
tp716
a(I1
g129
tp717
a(I2
g135
tp718
a(I3
g133
tp719
a(I0
g133
tp720
a(I1
g135
tp721
a(I2
g135
tp722
a(I3
g129
tp723
a(I0
g133
tp724
a(I1
g135
tp725
a(I2
g135
tp726
a(I3
g129
tp727
a(I0
g308
tp728
a(I1
g135
tp729
a(I2
g135
tp730
a(I3
g129
tp731
a(I0
g127
tp732
a(I1
g135
tp733
a(I2
g135
tp734
a(I3
g129
tp735
a(I0
g133
tp736
a(I1
g129
tp737
a(I2
g129
tp738
a(I3
g127
tp739
a(I0
g127
tp740
a(I1
g129
tp741
a(I2
g127
tp742
a(I3
g127
tp743
a(I0
g127
tp744
a(I1
g135
tp745
a(I2
g133
tp746
a(I3
g133
tp747
a(I0
g127
tp748
a(I1
g129
tp749
a(I2
g135
tp750
a(I3
g133
tp751
a(I0
g133
tp752
a(I1
g129
tp753
a(I2
g129
tp754
a(I3
g127
tp755
a(I0
g133
tp756
a(I1
g129
tp757
a(I2
g127
tp758
a(I3
g127
tp759
a(I0
g127
tp760
a(I1
g127
tp761
a(I2
g133
tp762
a(I3
g133
tp763
a(I0
g133
tp764
a(I1
g127
tp765
a(I2
g127
tp766
a(I3
g127
tp767
a(I0
g133
tp768
a(I1
g129
tp769
a(I2
g129
tp770
a(I3
g127
tp771
a(I0
g133
tp772
a(I1
g129
tp773
a(I2
g135
tp774
a(I3
g129
tp775
a(I0
g135
tp776
a(I1
g135
tp777
a(I2
g133
tp778
a(I3
g127
tp779
a(I0
g135
tp780
a(I1
g135
tp781
a(I2
g127
tp782
a(I3
g133
tp783
a(I0
g133
tp784
a(I1
g129
tp785
a(I2
g127
tp786
a(I3
g135
tp787
a(I0
g133
tp788
a(I1
g129
tp789
a(I2
g127
tp790
a(I3
g129
tp791
a(I0
g127
tp792
a(I1
g129
tp793
a(I2
g129
tp794
a(I3
g127
tp795
a(I0
g127
tp796
a(I1
g129
tp797
a(I2
g127
tp798
a(I3
g133
tp799
a(I0
g133
tp800
a(I1
g135
tp801
a(I2
g133
tp802
a(I3
g127
tp803
a(I0
g133
tp804
a(I1
g135
tp805
a(I2
g133
tp806
a(I3
g127
tp807
a(I0
g133
tp808
a(I1
g129
tp809
a(I2
g133
tp810
a(I3
g127
tp811
a(I0
g133
tp812
a(I1
g135
tp813
a(I2
g127
tp814
a(I3
g127
tp815
a(I0
g135
tp816
a(I1
g135
tp817
a(I2
g133
tp818
a(I3
g127
tp819
a(I0
g135
tp820
a(I1
g129
tp821
a(I2
g133
tp822
a(I3
g129
tp823
a(I0
g135
tp824
a(I1
g129
tp825
a(I2
g133
tp826
a(I3
g133
tp827
a(I0
g133
tp828
a(I1
g308
tp829
a(I2
g127
tp830
a(I3
g135
tp831
a(I0
g133
tp832
a(I1
g133
tp833
a(I2
g129
tp834
a(I3
g135
tp835
a(I0
g133
tp836
a(I1
g133
tp837
a(I2
g135
tp838
a(I3
g135
tp839
a(I0
g133
tp840
a(I1
g129
tp841
a(I2
g129
tp842
a(I3
g135
tp843
a(I0
g133
tp844
a(I1
g129
tp845
a(I2
g135
tp846
a(I3
g135
tp847
a(I0
g133
tp848
a(I1
g135
tp849
a(I2
g129
tp850
a(I3
g135
tp851
a(I0
g133
tp852
a(I1
g135
tp853
a(I2
g127
tp854
a(I3
g135
tp855
a(I0
g133
tp856
a(I1
g133
tp857
a(I2
g133
tp858
a(I3
g135
tp859
a(I0
g129
tp860
a(I1
g133
tp861
a(I2
g133
tp862
a(I3
g129
tp863
a(I0
g135
tp864
a(I1
g133
tp865
a(I2
g133
tp866
a(I3
g135
tp867
a(I0
g135
tp868
a(I1
g135
tp869
a(I2
g135
tp870
a(I3
g135
tp871
a(I0
g133
tp872
a(I1
g135
tp873
a(I2
g135
tp874
a(I3
g129
tp875
a(I0
g135
tp876
a(I1
g133
tp877
a(I2
g135
tp878
a(I3
g129
tp879
a(I0
g133
tp880
a(I1
g133
tp881
a(I2
g135
tp882
a(I3
g135
tp883
a(I0
g308
tp884
a(I1
g308
tp885
a(I2
g127
tp886
a(I3
g135
tp887
a(I0
g308
tp888
a(I1
g308
tp889
a(I2
g127
tp890
a(I3
g133
tp891
a(I0
g308
tp892
a(I1
g308
tp893
a(I2
g133
tp894
a(I3
g133
tp895
a(I0
g308
tp896
a(I1
g308
tp897
a(I2
g133
tp898
a(I3
g133
tp899
a(I0
g308
tp900
a(I1
g308
tp901
a(I2
g135
tp902
a(I3
g135
tp903
a(I0
g308
tp904
a(I1
g308
tp905
a(I2
g135
tp906
a(I3
g135
tp907
a(I0
g308
tp908
a(I1
g308
tp909
a(I2
g135
tp910
a(I3
g135
tp911
a(I0
g308
tp912
a(I1
g308
tp913
a(I2
g135
tp914
a(I3
g133
tp915
a(I0
g308
tp916
a(I1
g308
tp917
a(I2
g129
tp918
a(I3
g133
tp919
a(I0
g127
tp920
a(I1
g129
tp921
a(I2
g129
tp922
a(I3
g127
tp923
a(I0
g133
tp924
a(I1
g129
tp925
a(I2
g129
tp926
a(I3
g129
tp927
a(I0
g127
tp928
a(I1
g127
tp929
a(I2
g129
tp930
a(I3
g129
tp931
a(I0
g127
tp932
a(I1
g127
tp933
a(I2
g129
tp934
a(I3
g135
tp935
a(I0
g127
tp936
a(I1
g129
tp937
a(I2
g133
tp938
a(I3
g133
tp939
a(I0
g133
tp940
a(I1
g129
tp941
a(I2
g133
tp942
a(I3
g127
tp943
a(I0
g133
tp944
a(I1
g129
tp945
a(I2
g133
tp946
a(I3
g129
tp947
a(I0
g133
tp948
a(I1
g129
tp949
a(I2
g133
tp950
a(I3
g129
tp951
a(I0
g127
tp952
a(I1
g135
tp953
a(I2
g133
tp954
a(I3
g135
tp955
a(I0
g133
tp956
a(I1
g127
tp957
a(I2
g127
tp958
a(I3
g133
tp959
a(I0
g133
tp960
a(I1
g129
tp961
a(I2
g127
tp962
a(I3
g133
tp963
a(I0
g135
tp964
a(I1
g308
tp965
a(I2
g127
tp966
a(I3
g127
tp967
a(I0
g135
tp968
a(I1
g308
tp969
a(I2
g127
tp970
a(I3
g133
tp971
a(I0
g133
tp972
a(I1
g308
tp973
a(I2
g129
tp974
a(I3
g135
tp975
a(I0
g133
tp976
a(I1
g308
tp977
a(I2
g129
tp978
a(I3
g129
tp979
a(I0
g127
tp980
a(I1
g308
tp981
a(I2
g135
tp982
a(I3
g127
tp983
a(I0
g127
tp984
a(I1
g308
tp985
a(I2
g135
tp986
a(I3
g129
tp987
a(I0
g133
tp988
a(I1
g308
tp989
a(I2
g127
tp990
a(I3
g127
tp991
a(I0
g133
tp992
a(I1
g308
tp993
a(I2
g127
tp994
a(I3
g127
tp995
a(I0
g133
tp996
a(I1
g308
tp997
a(I2
g127
tp998
a(I3
g133
tp999
a(I0
g133
tp1000
a(I1
g308
tp1001
a(I2
g135
tp1002
a(I3
g133
tp1003
a(I0
g135
tp1004
a(I1
g133
tp1005
a(I2
g133
tp1006
a(I3
g129
tp1007
a(I0
g135
tp1008
a(I1
g133
tp1009
a(I2
g133
tp1010
a(I3
g129
tp1011
a(I0
g135
tp1012
a(I1
g135
tp1013
a(I2
g135
tp1014
a(I3
g129
tp1015
a(I0
g133
tp1016
a(I1
g135
tp1017
a(I2
g135
tp1018
a(I3
g129
tp1019
a(I0
g133
tp1020
a(I1
g135
tp1021
a(I2
g135
tp1022
a(I3
g129
tp1023
a(I0
g133
tp1024
a(I1
g308
tp1025
a(I2
g135
tp1026
a(I3
g135
tp1027
a(I0
g133
tp1028
a(I1
g127
tp1029
a(I2
g129
tp1030
a(I3
g127
tp1031
a(I0
g133
tp1032
a(I1
g127
tp1033
a(I2
g129
tp1034
a(I3
g127
tp1035
a(I0
g127
tp1036
a(I1
g127
tp1037
a(I2
g129
tp1038
a(I3
g127
tp1039
a(I0
g127
tp1040
a(I1
g129
tp1041
a(I2
g129
tp1042
a(I3
g127
tp1043
a(I0
g127
tp1044
a(I1
g129
tp1045
a(I2
g129
tp1046
a(I3
g127
tp1047
a(I0
g127
tp1048
a(I1
g129
tp1049
a(I2
g133
tp1050
a(I3
g135
tp1051
a(I0
g133
tp1052
a(I1
g135
tp1053
a(I2
g133
tp1054
a(I3
g135
tp1055
a(I0
g133
tp1056
a(I1
g129
tp1057
a(I2
g133
tp1058
a(I3
g135
tp1059
a(I0
g127
tp1060
a(I1
g135
tp1061
a(I2
g133
tp1062
a(I3
g135
tp1063
a(I0
g133
tp1064
a(I1
g308
tp1065
a(I2
g133
tp1066
a(I3
g135
tp1067
a(I0
g133
tp1068
a(I1
g308
tp1069
a(I2
g127
tp1070
a(I3
g135
tp1071
a(I0
g133
tp1072
a(I1
g308
tp1073
a(I2
g127
tp1074
a(I3
g135
tp1075
a(I0
g135
tp1076
a(I1
g308
tp1077
a(I2
g127
tp1078
a(I3
g127
tp1079
a(I0
g135
tp1080
a(I1
g308
tp1081
a(I2
g127
tp1082
a(I3
g127
tp1083
a(I0
g133
tp1084
a(I1
g308
tp1085
a(I2
g129
tp1086
a(I3
g127
tp1087
a(I0
g133
tp1088
a(I1
g308
tp1089
a(I2
g129
tp1090
a(I3
g127
tp1091
a(I0
g127
tp1092
a(I1
g308
tp1093
a(I2
g127
tp1094
a(I3
g127
tp1095
a(I0
g127
tp1096
a(I1
g308
tp1097
a(I2
g127
tp1098
a(I3
g127
tp1099
a(I0
g133
tp1100
a(I1
g308
tp1101
a(I2
g127
tp1102
a(I3
g127
tp1103
a(I0
g133
tp1104
a(I1
g308
tp1105
a(I2
g129
tp1106
a(I3
g135
tp1107
a(I0
g133
tp1108
a(I1
g308
tp1109
a(I2
g127
tp1110
a(I3
g135
tp1111
a(I0
g133
tp1112
a(I1
g308
tp1113
a(I2
g135
tp1114
a(I3
g135
tp1115
a(I0
g135
tp1116
a(I1
g135
tp1117
a(I2
g135
tp1118
a(I3
g135
tp1119
a(I0
g135
tp1120
a(I1
g127
tp1121
a(I2
g133
tp1122
a(I3
g135
tp1123
a(I0
g135
tp1124
a(I1
g127
tp1125
a(I2
g135
tp1126
a(I3
g135
tp1127
a(I0
g133
tp1128
a(I1
g133
tp1129
a(I2
g135
tp1130
a(I3
g135
tp1131
a(I0
g133
tp1132
a(I1
g127
tp1133
a(I2
g133
tp1134
a(I3
g127
tp1135
a(I0
g133
tp1136
a(I1
g133
tp1137
a(I2
g133
tp1138
a(I3
g127
tp1139
a(I0
g133
tp1140
a(I1
g133
tp1141
a(I2
g127
tp1142
a(I3
g127
tp1143
a(I0
g127
tp1144
a(I1
g133
tp1145
a(I2
g127
tp1146
a(I3
g133
tp1147
a(I0
g133
tp1148
a(I1
g129
tp1149
a(I2
g133
tp1150
a(I3
g133
tp1151
a(I0
g127
tp1152
a(I1
g129
tp1153
a(I2
g133
tp1154
a(I3
g133
tp1155
a(I0
g127
tp1156
a(I1
g129
tp1157
a(I2
g133
tp1158
a(I3
g135
tp1159
a(I0
g127
tp1160
a(I1
g135
tp1161
a(I2
g133
tp1162
a(I3
g135
tp1163
a(I0
g133
tp1164
a(I1
g308
tp1165
a(I2
g135
tp1166
a(I3
g133
tp1167
a(I0
g133
tp1168
a(I1
g127
tp1169
a(I2
g135
tp1170
a(I3
g135
tp1171
a(I0
g127
tp1172
a(I1
g308
tp1173
a(I2
g135
tp1174
a(I3
g133
tp1175
a(I0
g133
tp1176
a(I1
g129
tp1177
a(I2
g133
tp1178
a(I3
g127
tp1179
a(I0
g133
tp1180
a(I1
g135
tp1181
a(I2
g133
tp1182
a(I3
g129
tp1183
a(I0
g133
tp1184
a(I1
g129
tp1185
a(I2
g133
tp1186
a(I3
g135
tp1187
a(I0
g135
tp1188
a(I1
g135
tp1189
a(I2
g127
tp1190
a(I3
g133
tp1191
a(I0
g135
tp1192
a(I1
g135
tp1193
a(I2
g127
tp1194
a(I3
g127
tp1195
a(I0
g133
tp1196
a(I1
g135
tp1197
a(I2
g127
tp1198
a(I3
g129
tp1199
a(I0
g133
tp1200
a(I1
g129
tp1201
a(I2
g135
tp1202
a(I3
g129
tp1203
a(I0
g127
tp1204
a(I1
g129
tp1205
a(I2
g135
tp1206
a(I3
g129
tp1207
a(I0
g127
tp1208
a(I1
g135
tp1209
a(I2
g135
tp1210
a(I3
g135
tp1211
a(I0
g133
tp1212
a(I1
g129
tp1213
a(I2
g129
tp1214
a(I3
g133
tp1215
a(I0
g133
tp1216
a(I1
g129
tp1217
a(I2
g129
tp1218
a(I3
g133
tp1219
a(I0
g133
tp1220
a(I1
g129
tp1221
a(I2
g135
tp1222
a(I3
g133
tp1223
a(I0
g133
tp1224
a(I1
g127
tp1225
a(I2
g129
tp1226
a(I3
g127
tp1227
a(I0
g135
tp1228
a(I1
g127
tp1229
a(I2
g127
tp1230
a(I3
g129
tp1231
a(I0
g135
tp1232
a(I1
g129
tp1233
a(I2
g127
tp1234
a(I3
g129
tp1235
a(I0
g135
tp1236
a(I1
g129
tp1237
a(I2
g127
tp1238
a(I3
g135
tp1239
a(I0
g133
tp1240
a(I1
g135
tp1241
a(I2
g133
tp1242
a(I3
g133
tp1243
a(I0
g133
tp1244
a(I1
g135
tp1245
a(I2
g127
tp1246
a(I3
g127
tp1247
a(I0
g133
tp1248
a(I1
g129
tp1249
a(I2
g129
tp1250
a(I3
g133
tp1251
a(I0
g133
tp1252
a(I1
g129
tp1253
a(I2
g127
tp1254
a(I3
g135
tp1255
a(I0
g133
tp1256
a(I1
g129
tp1257
a(I2
g127
tp1258
a(I3
g129
tp1259
a(I0
g133
tp1260
a(I1
g129
tp1261
a(I2
g133
tp1262
a(I3
g127
tp1263
a(I0
g133
tp1264
a(I1
g135
tp1265
a(I2
g127
tp1266
a(I3
g129
tp1267
a(I0
g135
tp1268
a(I1
g135
tp1269
a(I2
g127
tp1270
a(I3
g127
tp1271
a(I0
g127
tp1272
a(I1
g129
tp1273
a(I2
g129
tp1274
a(I3
g127
tp1275
a(I0
g133
tp1276
a(I1
g135
tp1277
a(I2
g133
tp1278
a(I3
g129
tp1279
a(I0
g127
tp1280
a(I1
g135
tp1281
a(I2
g135
tp1282
a(I3
g129
tp1283
a(I0
g127
tp1284
a(I1
g129
tp1285
a(I2
g135
tp1286
a(I3
g129
tp1287
a(I0
g127
tp1288
a(I1
g129
tp1289
a(I2
g129
tp1290
a(I3
g127
tp1291
a(I0
g133
tp1292
a(I1
g129
tp1293
a(I2
g135
tp1294
a(I3
g127
tp1295
a(I0
g133
tp1296
a(I1
g135
tp1297
a(I2
g135
tp1298
a(I3
g133
tp1299
a(I0
g127
tp1300
a(I1
g135
tp1301
a(I2
g133
tp1302
a(I3
g133
tp1303
a(I0
g133
tp1304
a(I1
g129
tp1305
a(I2
g135
tp1306
a(I3
g133
tp1307
a(I0
g133
tp1308
a(I1
g308
tp1309
a(I2
g129
tp1310
a(I3
g129
tp1311
a(I0
g133
tp1312
a(I1
g133
tp1313
a(I2
g135
tp1314
a(I3
g127
tp1315
a(I0
g135
tp1316
a(I1
g135
tp1317
a(I2
g135
tp1318
a(I3
g127
tp1319
a(I0
g135
tp1320
a(I1
g133
tp1321
a(I2
g133
tp1322
a(I3
g133
tp1323
a(I0
g133
tp1324
a(I1
g135
tp1325
a(I2
g135
tp1326
a(I3
g127
tp1327
a(I0
g133
tp1328
a(I1
g127
tp1329
a(I2
g129
tp1330
a(I3
g127
tp1331
asS'length'
p1332
I1200
sS'agents'
p1333
(lp1334
(igame
Agent
p1335
(dp1336
S'index'
p1337
I0
sba(igame
Agent
p1338
(dp1339
g1337
I0
sba(igame
Agent
p1340
(dp1341
g1337
I0
sba(igame
Agent
p1342
(dp1343
g1337
I0
sbasS'redTeamName'
p1344
S'Red'
p1345
s.