(dp1
S'layout'
p2
(ilayout
Layout
p3
(dp4
S'capsules'
p5
(lp6
(I13
I7
tp7
a(I25
I7
tp8
a(I8
I10
tp9
a(I20
I10
tp10
asS'numGhosts'
p11
I4
sS'food'
p12
(igame
Grid
p13
(dp14
S'CELLS_PER_INT'
p15
I30
sS'width'
p16
I34
sS'data'
p17
(lp18
(lp19
I00
aI00
aI00
aI00
aI00
aI00
aI00
aI00
aI00
aI00
aI00
aI00
aI00
aI00
aI00
aI00
aI00
aI00
aa(lp20
I00
aI00
aI00
aI00
aI00
aI00
aI00
aI00
aI00
aI00
aI00
aI00
aI00
aI00
aI00
aI00
aI00
aI00
aa(lp21
I00
aI00
aI00
aI00
aI00
aI00
aI00
aI00
aI00
aI00
aI00
aI00
aI00
aI00
aI00
aI00
aI00
aI00
aa(lp22
I00
aI00
aI00
aI00
aI00
aI00
aI00
aI00
aI00
aI00
aI00
aI00
aI00
aI00
aI00
aI00
aI00
aI00
aa(lp23
I00
aI00
aI00
aI00
aI00
aI00
aI00
aI00
aI00
aI00
aI00
aI00
aI00
aI00
aI00
aI00
aI00
aI00
aa(lp24
I00
aI00
aI00
aI00
aI00
aI00
aI00
aI00
aI00
aI00
aI00
aI00
aI00
aI00
aI00
aI00
aI00
aI00
aa(lp25
I00
aI00
aI00
aI00
aI00
aI00
aI00
aI00
aI00
aI00
aI00
aI00
aI00
aI00
aI00
aI00
aI00
aI00
aa(lp26
I00
aI01
aI01
aI00
aI01
aI00
aI00
aI01
aI00
aI00
aI00
aI00
aI01
aI00
aI00
aI00
aI01
aI00
aa(lp27
I00
aI00
aI00
aI00
aI00
aI00
aI00
aI00
aI00
aI00
aI00
aI01
aI01
aI01
aI00
aI01
aI01
aI00
aa(lp28
I00
aI00
aI00
aI00
aI01
aI00
aI01
aI00
aI00
aI00
aI00
aI00
aI00
aI00
aI00
aI00
aI00
aI00
aa(lp29
I00
aI00
aI01
aI01
aI00
aI00
aI00
aI00
aI00
aI01
aI01
aI00
aI01
aI00
aI00
aI00
aI01
aI00
aa(lp30
I00
aI00
aI00
aI00
aI01
aI00
aI00
aI00
aI00
aI00
aI00
aI00
aI00
aI00
aI01
aI00
aI00
aI00
aa(lp31
I00
aI00
aI01
aI00
aI00
aI00
aI00
aI00
aI00
aI01
aI00
aI01
aI00
aI01
aI00
aI00
aI00
aI00
aa(lp32
I00
aI00
aI00
aI01
aI00
aI00
aI01
aI00
aI00
aI00
aI00
aI00
aI01
aI01
aI01
aI00
aI00
aI00
aa(lp33
I00
aI00
aI00
aI00
aI00
aI00
aI00
aI00
aI00
aI00
aI00
aI00
aI00
aI00
aI00
aI00
aI00
aI00
aa(lp34
I00
aI00
aI00
aI00
aI00
aI00
aI00
aI00
aI00
aI00
aI00
aI00
aI00
aI00
aI00
aI00
aI00
aI00
aa(lp35
I00
aI00
aI00
aI00
aI00
aI00
aI00
aI00
aI00
aI00
aI00
aI00
aI00
aI00
aI00
aI00
aI00
aI00
aa(lp36
I00
aI00
aI00
aI00
aI00
aI00
aI00
aI00
aI00
aI00
aI00
aI00
aI00
aI00
aI00
aI00
aI00
aI00
aa(lp37
I00
aI00
aI00
aI00
aI00
aI00
aI00
aI00
aI00
aI00
aI00
aI00
aI00
aI00
aI00
aI00
aI00
aI00
aa(lp38
I00
aI00
aI00
aI00
aI00
aI00
aI00
aI00
aI00
aI00
aI00
aI00
aI00
aI00
aI00
aI00
aI00
aI00
aa(lp39
I00
aI00
aI00
aI01
aI01
aI01
aI00
aI00
aI00
aI00
aI00
aI01
aI00
aI00
aI01
aI00
aI00
aI00
aa(lp40
I00
aI00
aI00
aI00
aI01
aI00
aI01
aI00
aI01
aI00
aI00
aI00
aI00
aI00
aI00
aI01
aI00
aI00
aa(lp41
I00
aI00
aI00
aI01
aI00
aI00
aI00
aI00
aI00
aI00
aI00
aI00
aI00
aI01
aI00
aI00
aI00
aI00
aa(lp42
I00
aI01
aI00
aI00
aI00
aI01
aI00
aI01
aI01
aI00
aI00
aI00
aI00
aI00
aI01
aI01
aI00
aI00
aa(lp43
I00
aI00
aI00
aI00
aI00
aI00
aI00
aI00
aI00
aI00
aI00
aI01
aI00
aI01
aI00
aI00
aI00
aI00
aa(lp44
I00
aI01
aI01
aI00
aI01
aI01
aI01
aI00
aI00
aI00
aI00
aI00
aI00
aI00
aI00
aI00
aI00
aI00
aa(lp45
I00
aI01
aI00
aI00
aI00
aI01
aI00
aI00
aI00
aI00
aI01
aI00
aI00
aI01
aI00
aI01
aI01
aI00
aa(lp46
I00
aI00
aI00
aI00
aI00
aI00
aI00
aI00
aI00
aI00
aI00
aI00
aI00
aI00
aI00
aI00
aI00
aI00
aa(lp47
I00
aI00
aI00
aI00
aI00
aI00
aI00
aI00
aI00
aI00
aI00
aI00
aI00
aI00
aI00
aI00
aI00
aI00
aa(lp48
I00
aI00
aI00
aI00
aI00
aI00
aI00
aI00
aI00
aI00
aI00
aI00
aI00
aI00
aI00
aI00
aI00
aI00
aa(lp49
I00
aI00
aI00
aI00
aI00
aI00
aI00
aI00
aI00
aI00
aI00
aI00
aI00
aI00
aI00
aI00
aI00
aI00
aa(lp50
I00
aI00
aI00
aI00
aI00
aI00
aI00
aI00
aI00
aI00
aI00
aI00
aI00
aI00
aI00
aI00
aI00
aI00
aa(lp51
I00
aI00
aI00
aI00
aI00
aI00
aI00
aI00
aI00
aI00
aI00
aI00
aI00
aI00
aI00
aI00
aI00
aI00
aa(lp52
I00
aI00
aI00
aI00
aI00
aI00
aI00
aI00
aI00
aI00
aI00
aI00
aI00
aI00
aI00
aI00
aI00
aI00
aasS'height'
p53
I18
sbsS'agentPositions'
p54
(lp55
(I00
(I1
I2
tp56
tp57
a(I00
(I32
I15
tp58
tp59
a(I00
(I1
I1
tp60
tp61
a(I00
(I32
I16
tp62
tp63
asg53
I18
sg16
I34
sS'walls'
p64
(igame
Grid
p65
(dp66
g15
I30
sg16
I34
sg17
(lp67
(lp68
I01
aI01
aI01
aI01
aI01
aI01
aI01
aI01
aI01
aI01
aI01
aI01
aI01
aI01
aI01
aI01
aI01
aI01
aa(lp69
I01
aI00
aI00
aI00
aI00
aI00
aI00
aI00
aI00
aI00
aI00
aI00
aI00
aI00
aI00
aI00
aI00
aI01
aa(lp70
I01
aI01
aI01
aI01
aI01
aI01
aI01
aI01
aI01
aI01
aI01
aI01
aI01
aI01
aI01
aI01
aI00
aI01
aa(lp71
I01
aI00
aI00
aI00
aI00
aI00
aI00
aI00
aI00
aI00
aI00
aI00
aI00
aI00
aI00
aI00
aI00
aI01
aa(lp72
I01
aI00
aI01
aI01
aI01
aI01
aI01
aI01
aI01
aI01
aI01
aI01
aI01
aI01
aI01
aI01
aI01
aI01
aa(lp73
I01
aI00
aI00
aI00
aI00
aI00
aI00
aI00
aI00
aI00
aI00
aI00
aI00
aI00
aI00
aI00
aI00
aI01
aa(lp74
I01
aI01
aI01
aI01
aI01
aI01
aI01
aI01
aI01
aI01
aI01
aI01
aI01
aI01
aI01
aI01
aI00
aI01
aa(lp75
I01
aI00
aI00
aI00
aI00
aI00
aI00
aI00
aI01
aI00
aI00
aI01
aI00
aI01
aI00
aI00
aI00
aI01
aa(lp76
I01
aI01
aI01
aI01
aI01
aI00
aI01
aI00
aI00
aI00
aI00
aI00
aI00
aI00
aI00
aI00
aI00
aI01
aa(lp77
I01
aI00
aI00
aI01
aI00
aI00
aI00
aI00
aI01
aI01
aI01
aI01
aI01
aI01
aI01
aI00
aI01
aI01
aa(lp78
I01
aI00
aI00
aI00
aI00
aI00
aI00
aI00
aI01
aI00
aI00
aI00
aI00
aI00
aI00
aI00
aI00
aI01
aa(lp79
I01
aI01
aI01
aI01
aI00
aI01
aI01
aI01
aI01
aI01
aI01
aI01
aI01
aI00
aI00
aI01
aI01
aI01
aa(lp80
I01
aI00
aI00
aI00
aI00
aI00
aI00
aI01
aI00
aI00
aI01
aI00
aI01
aI00
aI00
aI00
aI00
aI01
aa(lp81
I01
aI00
aI01
aI00
aI00
aI01
aI00
aI00
aI00
aI00
aI00
aI00
aI00
aI00
aI00
aI00
aI00
aI01
aa(lp82
I01
aI00
aI01
aI01
aI01
aI01
aI01
aI01
aI01
aI01
aI01
aI01
aI01
aI01
aI01
aI01
aI00
aI01
aa(lp83
I01
aI00
aI01
aI00
aI00
aI00
aI01
aI00
aI00
aI00
aI01
aI00
aI00
aI00
aI00
aI00
aI00
aI01
aa(lp84
I01
aI00
aI01
aI00
aI01
aI00
aI00
aI00
aI01
aI00
aI00
aI00
aI01
aI00
aI00
aI01
aI00
aI01
aa(lp85
I01
aI00
aI01
aI00
aI00
aI01
aI00
aI00
aI00
aI01
aI00
aI00
aI00
aI01
aI00
aI01
aI00
aI01
aa(lp86
I01
aI00
aI00
aI00
aI00
aI00
aI00
aI01
aI00
aI00
aI00
aI01
aI00
aI00
aI00
aI01
aI00
aI01
aa(lp87
I01
aI00
aI01
aI01
aI01
aI01
aI01
aI01
aI01
aI01
aI01
aI01
aI01
aI01
aI01
aI01
aI00
aI01
aa(lp88
I01
aI00
aI00
aI00
aI00
aI00
aI00
aI00
aI00
aI00
aI00
aI00
aI01
aI00
aI00
aI01
aI00
aI01
aa(lp89
I01
aI00
aI00
aI00
aI00
aI01
aI00
aI01
aI00
aI00
aI01
aI00
aI00
aI00
aI00
aI00
aI00
aI01
aa(lp90
I01
aI01
aI01
aI00
aI00
aI01
aI01
aI01
aI01
aI01
aI01
aI01
aI01
aI00
aI01
aI01
aI01
aI01
aa(lp91
I01
aI00
aI00
aI00
aI00
aI00
aI00
aI00
aI00
aI01
aI00
aI00
aI00
aI00
aI00
aI00
aI00
aI01
aa(lp92
I01
aI01
aI00
aI01
aI01
aI01
aI01
aI01
aI01
aI01
aI00
aI00
aI00
aI00
aI01
aI00
aI00
aI01
aa(lp93
I01
aI00
aI00
aI00
aI00
aI00
aI00
aI00
aI00
aI00
aI00
aI01
aI00
aI01
aI01
aI01
aI01
aI01
aa(lp94
I01
aI00
aI00
aI00
aI01
aI00
aI01
aI00
aI00
aI01
aI00
aI00
aI00
aI00
aI00
aI00
aI00
aI01
aa(lp95
I01
aI00
aI01
aI01
aI01
aI01
aI01
aI01
aI01
aI01
aI01
aI01
aI01
aI01
aI01
aI01
aI01
aI01
aa(lp96
I01
aI00
aI00
aI00
aI00
aI00
aI00
aI00
aI00
aI00
aI00
aI00
aI00
aI00
aI00
aI00
aI00
aI01
aa(lp97
I01
aI01
aI01
aI01
aI01
aI01
aI01
aI01
aI01
aI01
aI01
aI01
aI01
aI01
aI01
aI01
aI00
aI01
aa(lp98
I01
aI00
aI00
aI00
aI00
aI00
aI00
aI00
aI00
aI00
aI00
aI00
aI00
aI00
aI00
aI00
aI00
aI01
aa(lp99
I01
aI00
aI01
aI01
aI01
aI01
aI01
aI01
aI01
aI01
aI01
aI01
aI01
aI01
aI01
aI01
aI01
aI01
aa(lp100
I01
aI00
aI00
aI00
aI00
aI00
aI00
aI00
aI00
aI00
aI00
aI00
aI00
aI00
aI00
aI00
aI00
aI01
aa(lp101
I01
aI01
aI01
aI01
aI01
aI01
aI01
aI01
aI01
aI01
aI01
aI01
aI01
aI01
aI01
aI01
aI01
aI01
aasg53
I18
sbsS'totalFood'
p102
I60
sS'layoutText'
p103
(lp104
S'%%%%%%%%%%%%%%%%%%%%%%%%%%%%%%%%%%'
p105
aS'%   %  ..%.%          %  %.%   %4%'
p106
aS'% % % % .  %  % %%%%%.%. %.% % %2%'
p107
aS'% % % %  % . .%    %. %.%% % % % %'
p108
aS'% % % %%.%  ..%  % %  . .%.% % % %'
p109
aS'% % % %..%.%%.% %  %% %    % % % %'
p110
aS'% % % %%.% %. %   %%. % .% % % % %'
p111
aS'% % % % o%.%% %%   %o%%   .% % % %'
p112
aS'% % % %  %.%. %  % %  %%% %% % % %'
p113
aS'% % % %% %%%  % %  % .%.%  % % % %'
p114
aS'% % % %.   %%o%   %% %%.%o % % % %'
p115
aS'% % % % %. % .%%   % .% %.%% % % %'
p116
aS'% % % %    % %%  % %.%%.%..% % % %'
p117
aS'% % % %.%. .  % %  %..  %.%% % % %'
p118
aS'% % % % %%.% .%    %. . %  % % % %'
p119
aS'%1% % %.% .%.%%%%% %  %  . % % % %'
p120
aS'%3%   %.%  %          %.%..  %   %'
p121
aS'%%%%%%%%%%%%%%%%%%%%%%%%%%%%%%%%%%'
p122
asbsS'blueTeamName'
p123
S'Blue'
p124
sS'actions'
p125
(lp126
(I1
S'South'
p127
tp128
a(I2
S'North'
p129
tp130
a(I3
g127
tp131
a(I0
g129
tp132
a(I1
g127
tp133
a(I2
g129
tp134
a(I3
g127
tp135
a(I0
g129
tp136
a(I1
g127
tp137
a(I2
g129
tp138
a(I3
g127
tp139
a(I0
g129
tp140
a(I1
g127
tp141
a(I2
g129
tp142
a(I3
g127
tp143
a(I0
g129
tp144
a(I1
g127
tp145
a(I2
g129
tp146
a(I3
g127
tp147
a(I0
g129
tp148
a(I1
g127
tp149
a(I2
g129
tp150
a(I3
g127
tp151
a(I0
g129
tp152
a(I1
g127
tp153
a(I2
g129
tp154
a(I3
g127
tp155
a(I0
g129
tp156
a(I1
g127
tp157
a(I2
g129
tp158
a(I3
g127
tp159
a(I0
g129
tp160
a(I1
g127
tp161
a(I2
g129
tp162
a(I3
g127
tp163
a(I0
g129
tp164
a(I1
g127
tp165
a(I2
g129
tp166
a(I3
g127
tp167
a(I0
g129
tp168
a(I1
g127
tp169
a(I2
g129
tp170
a(I3
g127
tp171
a(I0
g129
tp172
a(I1
g127
tp173
a(I2
g129
tp174
a(I3
g127
tp175
a(I0
g129
tp176
a(I1
g127
tp177
a(I2
g129
tp178
a(I3
g127
tp179
a(I0
g129
tp180
a(I1
g127
tp181
a(I2
g129
tp182
a(I3
g127
tp183
a(I0
g129
tp184
a(I1
S'West'
p185
tp186
a(I2
g129
tp187
a(I3
g127
tp188
a(I0
S'East'
p189
tp190
a(I1
g185
tp191
a(I2
g189
tp192
a(I3
g185
tp193
a(I0
g189
tp194
a(I1
g129
tp195
a(I2
g189
tp196
a(I3
g185
tp197
a(I0
g127
tp198
a(I1
g129
tp199
a(I2
g127
tp200
a(I3
g129
tp201
a(I0
g127
tp202
a(I1
g129
tp203
a(I2
g127
tp204
a(I3
g129
tp205
a(I0
g127
tp206
a(I1
g129
tp207
a(I2
g127
tp208
a(I3
g129
tp209
a(I0
g127
tp210
a(I1
g129
tp211
a(I2
g127
tp212
a(I3
g129
tp213
a(I0
g127
tp214
a(I1
g129
tp215
a(I2
g127
tp216
a(I3
g129
tp217
a(I0
g127
tp218
a(I1
g129
tp219
a(I2
g127
tp220
a(I3
g129
tp221
a(I0
g127
tp222
a(I1
g129
tp223
a(I2
g127
tp224
a(I3
g129
tp225
a(I0
g127
tp226
a(I1
g129
tp227
a(I2
g127
tp228
a(I3
g129
tp229
a(I0
g127
tp230
a(I1
g129
tp231
a(I2
g127
tp232
a(I3
g129
tp233
a(I0
g127
tp234
a(I1
g129
tp235
a(I2
g127
tp236
a(I3
g129
tp237
a(I0
g127
tp238
a(I1
g129
tp239
a(I2
g127
tp240
a(I3
g129
tp241
a(I0
g127
tp242
a(I1
g129
tp243
a(I2
g127
tp244
a(I3
g129
tp245
a(I0
g127
tp246
a(I1
g129
tp247
a(I2
g127
tp248
a(I3
g129
tp249
a(I0
g127
tp250
a(I1
g129
tp251
a(I2
g127
tp252
a(I3
g129
tp253
a(I0
g127
tp254
a(I1
g185
tp255
a(I2
g127
tp256
a(I3
g129
tp257
a(I0
g189
tp258
a(I1
g185
tp259
a(I2
g189
tp260
a(I3
g185
tp261
a(I0
g189
tp262
a(I1
g127
tp263
a(I2
g189
tp264
a(I3
g185
tp265
a(I0
g129
tp266
a(I1
g127
tp267
a(I2
g129
tp268
a(I3
g127
tp269
a(I0
g129
tp270
a(I1
g127
tp271
a(I2
g129
tp272
a(I3
g127
tp273
a(I0
g129
tp274
a(I1
g127
tp275
a(I2
g129
tp276
a(I3
g127
tp277
a(I0
g129
tp278
a(I1
g127
tp279
a(I2
g129
tp280
a(I3
g127
tp281
a(I0
g129
tp282
a(I1
g127
tp283
a(I2
g129
tp284
a(I3
g127
tp285
a(I0
g129
tp286
a(I1
g127
tp287
a(I2
g129
tp288
a(I3
g127
tp289
a(I0
g129
tp290
a(I1
g127
tp291
a(I2
g129
tp292
a(I3
g127
tp293
a(I0
g129
tp294
a(I1
g127
tp295
a(I2
g129
tp296
a(I3
g127
tp297
a(I0
g129
tp298
a(I1
g127
tp299
a(I2
g129
tp300
a(I3
g127
tp301
a(I0
g129
tp302
a(I1
g127
tp303
a(I2
g129
tp304
a(I3
g127
tp305
a(I0
g129
tp306
a(I1
g127
tp307
a(I2
g129
tp308
a(I3
g127
tp309
a(I0
g129
tp310
a(I1
g127
tp311
a(I2
g129
tp312
a(I3
g127
tp313
a(I0
g129
tp314
a(I1
g127
tp315
a(I2
g129
tp316
a(I3
g127
tp317
a(I0
g129
tp318
a(I1
g127
tp319
a(I2
g129
tp320
a(I3
g127
tp321
a(I0
g129
tp322
a(I1
g185
tp323
a(I2
g129
tp324
a(I3
g127
tp325
a(I0
g189
tp326
a(I1
g185
tp327
a(I2
g189
tp328
a(I3
g185
tp329
a(I0
g189
tp330
a(I1
g129
tp331
a(I2
g189
tp332
a(I3
g185
tp333
a(I0
g189
tp334
a(I1
g185
tp335
a(I2
g189
tp336
a(I3
g185
tp337
a(I0
g127
tp338
a(I1
g185
tp339
a(I2
g127
tp340
a(I3
g129
tp341
a(I0
g189
tp342
a(I1
g185
tp343
a(I2
g189
tp344
a(I3
g129
tp345
a(I0
g189
tp346
a(I1
g129
tp347
a(I2
g189
tp348
a(I3
g129
tp349
a(I0
g127
tp350
a(I1
g185
tp351
a(I2
g129
tp352
a(I3
g129
tp353
a(I0
g189
tp354
a(I1
g185
tp355
a(I2
g127
tp356
a(I3
g129
tp357
a(I0
g189
tp358
a(I1
g185
tp359
a(I2
g185
tp360
a(I3
g129
tp361
a(I0
g189
tp362
a(I1
g127
tp363
a(I2
g185
tp364
a(I3
g189
tp365
a(I0
g129
tp366
a(I1
g127
tp367
a(I2
g129
tp368
a(I3
g129
tp369
a(I0
g129
tp370
a(I1
g185
tp371
a(I2
g185
tp372
a(I3
g185
tp373
a(I0
g189
tp374
a(I1
g185
tp375
a(I2
g185
tp376
a(I3
g129
tp377
a(I0
g189
tp378
a(I1
g185
tp379
a(I2
g185
tp380
a(I3
g129
tp381
a(I0
g189
tp382
a(I1
g185
tp383
a(I2
g127
tp384
a(I3
g189
tp385
a(I0
g189
tp386
a(I1
g185
tp387
a(I2
g127
tp388
a(I3
g129
tp389
a(I0
g189
tp390
a(I1
g185
tp391
a(I2
g127
tp392
a(I3
g129
tp393
a(I0
g189
tp394
a(I1
g185
tp395
a(I2
g127
tp396
a(I3
g129
tp397
a(I0
g189
tp398
a(I1
g185
tp399
a(I2
g127
tp400
a(I3
g129
tp401
a(I0
g189
tp402
a(I1
g129
tp403
a(I2
g127
tp404
a(I3
g129
tp405
a(I0
g127
tp406
a(I1
g127
tp407
a(I2
g127
tp408
a(I3
g127
tp409
a(I0
g127
tp410
a(I1
g189
tp411
a(I2
g127
tp412
a(I3
g127
tp413
a(I0
g185
tp414
a(I1
g185
tp415
a(I2
g127
tp416
a(I3
g127
tp417
a(I0
g127
tp418
a(I1
g129
tp419
a(I2
g127
tp420
a(I3
g127
tp421
a(I0
g189
tp422
a(I1
g129
tp423
a(I2
g127
tp424
a(I3
g127
tp425
a(I0
g189
tp426
a(I1
g189
tp427
a(I2
g127
tp428
a(I3
g185
tp429
a(I0
g189
tp430
a(I1
g185
tp431
a(I2
g127
tp432
a(I3
g185
tp433
a(I0
g129
tp434
a(I1
g127
tp435
a(I2
g127
tp436
a(I3
g129
tp437
a(I0
g129
tp438
a(I1
g127
tp439
a(I2
g127
tp440
a(I3
g129
tp441
a(I0
g127
tp442
a(I1
g189
tp443
a(I2
g185
tp444
a(I3
g185
tp445
a(I0
g127
tp446
a(I1
g189
tp447
a(I2
g185
tp448
a(I3
g129
tp449
a(I0
g129
tp450
a(I1
g185
tp451
a(I2
g129
tp452
a(I3
g129
tp453
a(I0
g129
tp454
a(I1
g185
tp455
a(I2
g129
tp456
a(I3
g129
tp457
a(I0
g129
tp458
a(I1
g129
tp459
a(I2
g129
tp460
a(I3
g189
tp461
a(I0
g129
tp462
a(I1
g129
tp463
a(I2
g129
tp464
a(I3
g129
tp465
a(I0
g129
tp466
a(I1
g129
tp467
a(I2
g129
tp468
a(I3
g185
tp469
a(I0
g129
tp470
a(I1
S'Stop'
p471
tp472
a(I2
g129
tp473
a(I3
g127
tp474
a(I0
g129
tp475
a(I1
g471
tp476
a(I2
g129
tp477
a(I3
g127
tp478
a(I0
g129
tp479
a(I1
g471
tp480
a(I2
g129
tp481
a(I3
g127
tp482
a(I0
g129
tp483
a(I1
g471
tp484
a(I2
g129
tp485
a(I3
g189
tp486
a(I0
g129
tp487
a(I1
g471
tp488
a(I2
g129
tp489
a(I3
g127
tp490
a(I0
g129
tp491
a(I1
g471
tp492
a(I2
g129
tp493
a(I3
g127
tp494
a(I0
g129
tp495
a(I1
g471
tp496
a(I2
g129
tp497
a(I3
g185
tp498
a(I0
g129
tp499
a(I1
g471
tp500
a(I2
g129
tp501
a(I3
g127
tp502
a(I0
g129
tp503
a(I1
g471
tp504
a(I2
g129
tp505
a(I3
g189
tp506
a(I0
g189
tp507
a(I1
g471
tp508
a(I2
g129
tp509
a(I3
g189
tp510
a(I0
g189
tp511
a(I1
g471
tp512
a(I2
g185
tp513
a(I3
g189
tp514
a(I0
g127
tp515
a(I1
g471
tp516
a(I2
g185
tp517
a(I3
g129
tp518
a(I0
g127
tp519
a(I1
g471
tp520
a(I2
g127
tp521
a(I3
g129
tp522
a(I0
g127
tp523
a(I1
g471
tp524
a(I2
g127
tp525
a(I3
g129
tp526
a(I0
g127
tp527
a(I1
g471
tp528
a(I2
g127
tp529
a(I3
g129
tp530
a(I0
g127
tp531
a(I1
g471
tp532
a(I2
g127
tp533
a(I3
g129
tp534
a(I0
g127
tp535
a(I1
g471
tp536
a(I2
g127
tp537
a(I3
g129
tp538
a(I0
g127
tp539
a(I1
g471
tp540
a(I2
g127
tp541
a(I3
g127
tp542
a(I0
g127
tp543
a(I1
g471
tp544
a(I2
g127
tp545
a(I3
g127
tp546
a(I0
g127
tp547
a(I1
g471
tp548
a(I2
g127
tp549
a(I3
g127
tp550
a(I0
g127
tp551
a(I1
g471
tp552
a(I2
g127
tp553
a(I3
g127
tp554
a(I0
g127
tp555
a(I1
g471
tp556
a(I2
g127
tp557
a(I3
g127
tp558
a(I0
g127
tp559
a(I1
g471
tp560
a(I2
g127
tp561
a(I3
g127
tp562
a(I0
g127
tp563
a(I1
g471
tp564
a(I2
g127
tp565
a(I3
g185
tp566
a(I0
g127
tp567
a(I1
g471
tp568
a(I2
g127
tp569
a(I3
g185
tp570
a(I0
g127
tp571
a(I1
g471
tp572
a(I2
g127
tp573
a(I3
g185
tp574
a(I0
g189
tp575
a(I1
g471
tp576
a(I2
g127
tp577
a(I3
g129
tp578
a(I0
g189
tp579
a(I1
g471
tp580
a(I2
g129
tp581
a(I3
g189
tp582
a(I0
g129
tp583
a(I1
g471
tp584
a(I2
g129
tp585
a(I3
g127
tp586
a(I0
g129
tp587
a(I1
g471
tp588
a(I2
g129
tp589
a(I3
g189
tp590
a(I0
g129
tp591
a(I1
g471
tp592
a(I2
g129
tp593
a(I3
g127
tp594
a(I0
g129
tp595
a(I1
g471
tp596
a(I2
g129
tp597
a(I3
g127
tp598
a(I0
g129
tp599
a(I1
g471
tp600
a(I2
g129
tp601
a(I3
g127
tp602
a(I0
g129
tp603
a(I1
g471
tp604
a(I2
g129
tp605
a(I3
g189
tp606
a(I0
g129
tp607
a(I1
g471
tp608
a(I2
g129
tp609
a(I3
g129
tp610
a(I0
g129
tp611
a(I1
g471
tp612
a(I2
g129
tp613
a(I3
g185
tp614
a(I0
g129
tp615
a(I1
g471
tp616
a(I2
g129
tp617
a(I3
g129
tp618
a(I0
g129
tp619
a(I1
g471
tp620
a(I2
g129
tp621
a(I3
g129
tp622
a(I0
g129
tp623
a(I1
g471
tp624
a(I2
g129
tp625
a(I3
g185
tp626
a(I0
g129
tp627
a(I1
g471
tp628
a(I2
g129
tp629
a(I3
g129
tp630
a(I0
g129
tp631
a(I1
g471
tp632
a(I2
g129
tp633
a(I3
g129
tp634
a(I0
g129
tp635
a(I1
g471
tp636
a(I2
g129
tp637
a(I3
g129
tp638
a(I0
g129
tp639
a(I1
g471
tp640
a(I2
g189
tp641
a(I3
g185
tp642
a(I0
g189
tp643
a(I1
g471
tp644
a(I2
g189
tp645
a(I3
g127
tp646
a(I0
g189
tp647
a(I1
g471
tp648
a(I2
g127
tp649
a(I3
g127
tp650
a(I0
g127
tp651
a(I1
g471
tp652
a(I2
g127
tp653
a(I3
g189
tp654
a(I0
g189
tp655
a(I1
g471
tp656
a(I2
g127
tp657
a(I3
g127
tp658
a(I0
g189
tp659
a(I1
g471
tp660
a(I2
g127
tp661
a(I3
g185
tp662
a(I0
g189
tp663
a(I1
g471
tp664
a(I2
g127
tp665
a(I3
g129
tp666
a(I0
g127
tp667
a(I1
g471
tp668
a(I2
g127
tp669
a(I3
g129
tp670
a(I0
g189
tp671
a(I1
g471
tp672
a(I2
g127
tp673
a(I3
g129
tp674
a(I0
g189
tp675
a(I1
g471
tp676
a(I2
g127
tp677
a(I3
g129
tp678
a(I0
g129
tp679
a(I1
g471
tp680
a(I2
g127
tp681
a(I3
g129
tp682
a(I0
g129
tp683
a(I1
g471
tp684
a(I2
g127
tp685
a(I3
g129
tp686
a(I0
g189
tp687
a(I1
g471
tp688
a(I2
g127
tp689
a(I3
g189
tp690
a(I0
g189
tp691
a(I1
g471
tp692
a(I2
g127
tp693
a(I3
g127
tp694
a(I0
g189
tp695
a(I1
g471
tp696
a(I2
g127
tp697
a(I3
g185
tp698
a(I0
g189
tp699
a(I1
g471
tp700
a(I2
g127
tp701
a(I3
g127
tp702
a(I0
g189
tp703
a(I1
g471
tp704
a(I2
g127
tp705
a(I3
g127
tp706
a(I0
g189
tp707
a(I1
g471
tp708
a(I2
g189
tp709
a(I3
g127
tp710
a(I0
g189
tp711
a(I1
g471
tp712
a(I2
g189
tp713
a(I3
g127
tp714
a(I0
g189
tp715
a(I1
g471
tp716
a(I2
g129
tp717
a(I3
g189
tp718
a(I0
g189
tp719
a(I1
g471
tp720
a(I2
g129
tp721
a(I3
g129
tp722
a(I0
g127
tp723
a(I1
g471
tp724
a(I2
g129
tp725
a(I3
g129
tp726
a(I0
g127
tp727
a(I1
g129
tp728
a(I2
g129
tp729
a(I3
g185
tp730
a(I0
g127
tp731
a(I1
g129
tp732
a(I2
g129
tp733
a(I3
g185
tp734
a(I0
g127
tp735
a(I1
g471
tp736
a(I2
g129
tp737
a(I3
g185
tp738
a(I0
g127
tp739
a(I1
g127
tp740
a(I2
g129
tp741
a(I3
g127
tp742
a(I0
g185
tp743
a(I1
g127
tp744
a(I2
g129
tp745
a(I3
g127
tp746
a(I0
g127
tp747
a(I1
g127
tp748
a(I2
g129
tp749
a(I3
g185
tp750
a(I0
g127
tp751
a(I1
g127
tp752
a(I2
g129
tp753
a(I3
g127
tp754
a(I0
g189
tp755
a(I1
g127
tp756
a(I2
g129
tp757
a(I3
g127
tp758
a(I0
g127
tp759
a(I1
g189
tp760
a(I2
g129
tp761
a(I3
g127
tp762
a(I0
g185
tp763
a(I1
g185
tp764
a(I2
g129
tp765
a(I3
g127
tp766
a(I0
g127
tp767
a(I1
g129
tp768
a(I2
g129
tp769
a(I3
g127
tp770
a(I0
g127
tp771
a(I1
g129
tp772
a(I2
g129
tp773
a(I3
g127
tp774
a(I0
g127
tp775
a(I1
g129
tp776
a(I2
g189
tp777
a(I3
g127
tp778
a(I0
g127
tp779
a(I1
g185
tp780
a(I2
g189
tp781
a(I3
g127
tp782
a(I0
g189
tp783
a(I1
g189
tp784
a(I2
g189
tp785
a(I3
g127
tp786
a(I0
g189
tp787
a(I1
g127
tp788
a(I2
g127
tp789
a(I3
g127
tp790
a(I0
g127
tp791
a(I1
g127
tp792
a(I2
g185
tp793
a(I3
g127
tp794
a(I0
g185
tp795
a(I1
g127
tp796
a(I2
g127
tp797
a(I3
g127
tp798
a(I0
g185
tp799
a(I1
g189
tp800
a(I2
g189
tp801
a(I3
g127
tp802
a(I0
g129
tp803
a(I1
g189
tp804
a(I2
g129
tp805
a(I3
g127
tp806
a(I0
g129
tp807
a(I1
g189
tp808
a(I2
g189
tp809
a(I3
g127
tp810
a(I0
g129
tp811
a(I1
g189
tp812
a(I2
g189
tp813
a(I3
g127
tp814
a(I0
g189
tp815
a(I1
g471
tp816
a(I2
g129
tp817
a(I3
g127
tp818
a(I0
g185
tp819
a(I1
g471
tp820
a(I2
g127
tp821
a(I3
g127
tp822
a(I0
g127
tp823
a(I1
g471
tp824
a(I2
g127
tp825
a(I3
g185
tp826
a(I0
g127
tp827
a(I1
g471
tp828
a(I2
g127
tp829
a(I3
g185
tp830
a(I0
g189
tp831
a(I1
g471
tp832
a(I2
g127
tp833
a(I3
g129
tp834
a(I0
g189
tp835
a(I1
g471
tp836
a(I2
g127
tp837
a(I3
g129
tp838
a(I0
g189
tp839
a(I1
g471
tp840
a(I2
g127
tp841
a(I3
g129
tp842
a(I0
g129
tp843
a(I1
g471
tp844
a(I2
g127
tp845
a(I3
g129
tp846
a(I0
g129
tp847
a(I1
g471
tp848
a(I2
g129
tp849
a(I3
g129
tp850
a(I0
g129
tp851
a(I1
g471
tp852
a(I2
g129
tp853
a(I3
g129
tp854
a(I0
g129
tp855
a(I1
g471
tp856
a(I2
g129
tp857
a(I3
g129
tp858
a(I0
g127
tp859
a(I1
g471
tp860
a(I2
g129
tp861
a(I3
g129
tp862
a(I0
g127
tp863
a(I1
g471
tp864
a(I2
g129
tp865
a(I3
g129
tp866
a(I0
g127
tp867
a(I1
g471
tp868
a(I2
g189
tp869
a(I3
g129
tp870
a(I0
g127
tp871
a(I1
g471
tp872
a(I2
g189
tp873
a(I3
g129
tp874
a(I0
g127
tp875
a(I1
g471
tp876
a(I2
g189
tp877
a(I3
g129
tp878
a(I0
g127
tp879
a(I1
g471
tp880
a(I2
g129
tp881
a(I3
g129
tp882
a(I0
g127
tp883
a(I1
g471
tp884
a(I2
g129
tp885
a(I3
g129
tp886
a(I0
g129
tp887
a(I1
g471
tp888
a(I2
g189
tp889
a(I3
g129
tp890
a(I0
g189
tp891
a(I1
g471
tp892
a(I2
g189
tp893
a(I3
g185
tp894
a(I0
g189
tp895
a(I1
g471
tp896
a(I2
g127
tp897
a(I3
g185
tp898
a(I0
g127
tp899
a(I1
g471
tp900
a(I2
g127
tp901
a(I3
g127
tp902
a(I0
g189
tp903
a(I1
g471
tp904
a(I2
g127
tp905
a(I3
g127
tp906
a(I0
g185
tp907
a(I1
g471
tp908
a(I2
g189
tp909
a(I3
g127
tp910
a(I0
g129
tp911
a(I1
g471
tp912
a(I2
g129
tp913
a(I3
g127
tp914
a(I0
g129
tp915
a(I1
g471
tp916
a(I2
g185
tp917
a(I3
g127
tp918
a(I0
g129
tp919
a(I1
g471
tp920
a(I2
g127
tp921
a(I3
g127
tp922
a(I0
g129
tp923
a(I1
g471
tp924
a(I2
g127
tp925
a(I3
g127
tp926
a(I0
g189
tp927
a(I1
g471
tp928
a(I2
g127
tp929
a(I3
g127
tp930
a(I0
g185
tp931
a(I1
g471
tp932
a(I2
g189
tp933
a(I3
g127
tp934
a(I0
g129
tp935
a(I1
g189
tp936
a(I2
g127
tp937
a(I3
g127
tp938
a(I0
g129
tp939
a(I1
g189
tp940
a(I2
g127
tp941
a(I3
g127
tp942
a(I0
g129
tp943
a(I1
g185
tp944
a(I2
g185
tp945
a(I3
g127
tp946
a(I0
g129
tp947
a(I1
g185
tp948
a(I2
g127
tp949
a(I3
g127
tp950
a(I0
g129
tp951
a(I1
g185
tp952
a(I2
g127
tp953
a(I3
g127
tp954
a(I0
g189
tp955
a(I1
g185
tp956
a(I2
g189
tp957
a(I3
g127
tp958
a(I0
g185
tp959
a(I1
g185
tp960
a(I2
g127
tp961
a(I3
g185
tp962
a(I0
g185
tp963
a(I1
g185
tp964
a(I2
g127
tp965
a(I3
g185
tp966
a(I0
g129
tp967
a(I1
g129
tp968
a(I2
g185
tp969
a(I3
g129
tp970
a(I0
g129
tp971
a(I1
g129
tp972
a(I2
g127
tp973
a(I3
g129
tp974
a(I0
g129
tp975
a(I1
g129
tp976
a(I2
g127
tp977
a(I3
g185
tp978
a(I0
g127
tp979
a(I1
g129
tp980
a(I2
g189
tp981
a(I3
g127
tp982
a(I0
g185
tp983
a(I1
g129
tp984
a(I2
g185
tp985
a(I3
g185
tp986
a(I0
g129
tp987
a(I1
g189
tp988
a(I2
g189
tp989
a(I3
g185
tp990
a(I0
g129
tp991
a(I1
g129
tp992
a(I2
g185
tp993
a(I3
g129
tp994
a(I0
g127
tp995
a(I1
g129
tp996
a(I2
g129
tp997
a(I3
g185
tp998
a(I0
g185
tp999
a(I1
g129
tp1000
a(I2
g129
tp1001
a(I3
g185
tp1002
a(I0
g189
tp1003
a(I1
g185
tp1004
a(I2
g189
tp1005
a(I3
g185
tp1006
a(I0
g189
tp1007
a(I1
g189
tp1008
a(I2
g129
tp1009
a(I3
g127
tp1010
a(I0
g127
tp1011
a(I1
g129
tp1012
a(I2
g129
tp1013
a(I3
g189
tp1014
a(I0
g189
tp1015
a(I1
g129
tp1016
a(I2
g185
tp1017
a(I3
g127
tp1018
a(I0
g189
tp1019
a(I1
g129
tp1020
a(I2
g129
tp1021
a(I3
g185
tp1022
a(I0
g129
tp1023
a(I1
g129
tp1024
a(I2
g129
tp1025
a(I3
g129
tp1026
a(I0
g127
tp1027
a(I1
g129
tp1028
a(I2
g189
tp1029
a(I3
g129
tp1030
a(I0
g185
tp1031
a(I1
g129
tp1032
a(I2
g129
tp1033
a(I3
g129
tp1034
a(I0
g185
tp1035
a(I1
g129
tp1036
a(I2
g129
tp1037
a(I3
g189
tp1038
a(I0
g185
tp1039
a(I1
g189
tp1040
a(I2
g185
tp1041
a(I3
g189
tp1042
a(I0
g129
tp1043
a(I1
g189
tp1044
a(I2
g129
tp1045
a(I3
g127
tp1046
a(I0
g185
tp1047
a(I1
g189
tp1048
a(I2
g129
tp1049
a(I3
g189
tp1050
a(I0
g185
tp1051
a(I1
g471
tp1052
a(I2
g129
tp1053
a(I3
g127
tp1054
a(I0
g129
tp1055
a(I1
g471
tp1056
a(I2
g129
tp1057
a(I3
g127
tp1058
a(I0
g129
tp1059
a(I1
g471
tp1060
a(I2
g129
tp1061
a(I3
g129
tp1062
a(I0
g129
tp1063
a(I1
g471
tp1064
a(I2
g189
tp1065
a(I3
g129
tp1066
a(I0
g185
tp1067
a(I1
g189
tp1068
a(I2
g471
tp1069
a(I3
g185
tp1070
a(I0
g185
tp1071
a(I1
g189
tp1072
a(I2
g471
tp1073
a(I3
g129
tp1074
a(I0
g185
tp1075
a(I1
g127
tp1076
a(I2
g471
tp1077
a(I3
g185
tp1078
a(I0
g185
tp1079
a(I1
g127
tp1080
a(I2
g471
tp1081
a(I3
g127
tp1082
a(I0
g185
tp1083
asS'length'
p1084
I1200
sS'agents'
p1085
(lp1086
(igame
Agent
p1087
(dp1088
S'index'
p1089
I0
sba(igame
Agent
p1090
(dp1091
g1089
I0
sba(igame
Agent
p1092
(dp1093
g1089
I0
sba(igame
Agent
p1094
(dp1095
g1089
I0
sbasS'redTeamName'
p1096
S'Red'
p1097
s.