(dp1
S'layout'
p2
(ilayout
Layout
p3
(dp4
S'capsules'
p5
(lp6
(I13
I3
tp7
a(I26
I3
tp8
a(I7
I14
tp9
a(I20
I14
tp10
asS'numGhosts'
p11
I4
sS'food'
p12
(igame
Grid
p13
(dp14
S'CELLS_PER_INT'
p15
I30
sS'width'
p16
I34
sS'data'
p17
(lp18
(lp19
I00
aI00
aI00
aI00
aI00
aI00
aI00
aI00
aI00
aI00
aI00
aI00
aI00
aI00
aI00
aI00
aI00
aI00
aa(lp20
I00
aI00
aI00
aI00
aI00
aI00
aI00
aI00
aI00
aI00
aI00
aI00
aI00
aI00
aI00
aI00
aI00
aI00
aa(lp21
I00
aI00
aI00
aI00
aI00
aI00
aI00
aI00
aI00
aI00
aI00
aI00
aI00
aI00
aI00
aI00
aI00
aI00
aa(lp22
I00
aI00
aI00
aI00
aI00
aI00
aI00
aI00
aI00
aI00
aI00
aI00
aI00
aI00
aI00
aI00
aI00
aI00
aa(lp23
I00
aI00
aI00
aI00
aI00
aI00
aI00
aI00
aI00
aI00
aI00
aI00
aI00
aI00
aI00
aI00
aI00
aI00
aa(lp24
I00
aI00
aI00
aI00
aI00
aI01
aI00
aI00
aI01
aI00
aI01
aI00
aI01
aI00
aI00
aI00
aI01
aI00
aa(lp25
I00
aI01
aI00
aI00
aI00
aI00
aI00
aI00
aI00
aI00
aI00
aI01
aI00
aI00
aI00
aI00
aI00
aI00
aa(lp26
I00
aI00
aI00
aI00
aI00
aI01
aI00
aI00
aI00
aI00
aI00
aI00
aI00
aI00
aI00
aI01
aI00
aI00
aa(lp27
I00
aI00
aI00
aI00
aI01
aI00
aI00
aI01
aI01
aI00
aI01
aI01
aI00
aI00
aI00
aI00
aI01
aI00
aa(lp28
I00
aI00
aI00
aI00
aI00
aI00
aI00
aI00
aI00
aI00
aI00
aI00
aI00
aI00
aI00
aI00
aI00
aI00
aa(lp29
I00
aI00
aI00
aI00
aI00
aI00
aI00
aI00
aI00
aI00
aI01
aI00
aI00
aI00
aI00
aI00
aI00
aI00
aa(lp30
I00
aI00
aI00
aI01
aI00
aI00
aI00
aI00
aI00
aI00
aI00
aI00
aI01
aI00
aI00
aI01
aI00
aI00
aa(lp31
I00
aI00
aI00
aI00
aI00
aI00
aI00
aI00
aI00
aI00
aI00
aI00
aI00
aI00
aI00
aI00
aI00
aI00
aa(lp32
I00
aI01
aI00
aI00
aI00
aI00
aI00
aI00
aI00
aI00
aI01
aI00
aI01
aI00
aI00
aI00
aI01
aI00
aa(lp33
I00
aI01
aI01
aI00
aI00
aI00
aI00
aI00
aI01
aI00
aI01
aI00
aI01
aI00
aI01
aI00
aI01
aI00
aa(lp34
I00
aI00
aI00
aI00
aI00
aI00
aI00
aI00
aI00
aI00
aI00
aI00
aI00
aI00
aI00
aI00
aI00
aI00
aa(lp35
I00
aI00
aI00
aI00
aI00
aI00
aI00
aI00
aI00
aI00
aI00
aI00
aI00
aI00
aI00
aI00
aI00
aI00
aa(lp36
I00
aI00
aI00
aI00
aI00
aI00
aI00
aI00
aI00
aI00
aI00
aI00
aI00
aI00
aI00
aI00
aI00
aI00
aa(lp37
I00
aI00
aI00
aI00
aI00
aI00
aI00
aI00
aI00
aI00
aI00
aI00
aI00
aI00
aI00
aI00
aI00
aI00
aa(lp38
I00
aI01
aI00
aI01
aI00
aI01
aI00
aI01
aI00
aI01
aI00
aI00
aI00
aI00
aI00
aI01
aI01
aI00
aa(lp39
I00
aI01
aI00
aI00
aI00
aI01
aI00
aI01
aI00
aI00
aI00
aI00
aI00
aI00
aI00
aI00
aI01
aI00
aa(lp40
I00
aI00
aI00
aI00
aI00
aI00
aI00
aI00
aI00
aI00
aI00
aI00
aI00
aI00
aI00
aI00
aI00
aI00
aa(lp41
I00
aI00
aI01
aI00
aI00
aI01
aI00
aI00
aI00
aI00
aI00
aI00
aI00
aI00
aI01
aI00
aI00
aI00
aa(lp42
I00
aI00
aI00
aI00
aI00
aI00
aI00
aI01
aI00
aI00
aI00
aI00
aI00
aI00
aI00
aI00
aI00
aI00
aa(lp43
I00
aI00
aI00
aI00
aI00
aI00
aI00
aI00
aI00
aI00
aI00
aI00
aI00
aI00
aI00
aI00
aI00
aI00
aa(lp44
I00
aI01
aI00
aI00
aI00
aI00
aI01
aI01
aI00
aI01
aI01
aI00
aI00
aI01
aI00
aI00
aI00
aI00
aa(lp45
I00
aI00
aI01
aI00
aI00
aI00
aI00
aI00
aI00
aI00
aI00
aI00
aI01
aI00
aI00
aI00
aI00
aI00
aa(lp46
I00
aI00
aI00
aI00
aI00
aI00
aI01
aI00
aI00
aI00
aI00
aI00
aI00
aI00
aI00
aI00
aI01
aI00
aa(lp47
I00
aI01
aI00
aI00
aI00
aI01
aI00
aI01
aI00
aI01
aI00
aI00
aI01
aI00
aI00
aI00
aI00
aI00
aa(lp48
I00
aI00
aI00
aI00
aI00
aI00
aI00
aI00
aI00
aI00
aI00
aI00
aI00
aI00
aI00
aI00
aI00
aI00
aa(lp49
I00
aI00
aI00
aI00
aI00
aI00
aI00
aI00
aI00
aI00
aI00
aI00
aI00
aI00
aI00
aI00
aI00
aI00
aa(lp50
I00
aI00
aI00
aI00
aI00
aI00
aI00
aI00
aI00
aI00
aI00
aI00
aI00
aI00
aI00
aI00
aI00
aI00
aa(lp51
I00
aI00
aI00
aI00
aI00
aI00
aI00
aI00
aI00
aI00
aI00
aI00
aI00
aI00
aI00
aI00
aI00
aI00
aa(lp52
I00
aI00
aI00
aI00
aI00
aI00
aI00
aI00
aI00
aI00
aI00
aI00
aI00
aI00
aI00
aI00
aI00
aI00
aasS'height'
p53
I18
sbsS'agentPositions'
p54
(lp55
(I00
(I1
I2
tp56
tp57
a(I00
(I32
I15
tp58
tp59
a(I00
(I1
I1
tp60
tp61
a(I00
(I32
I16
tp62
tp63
asg53
I18
sg16
I34
sS'walls'
p64
(igame
Grid
p65
(dp66
g15
I30
sg16
I34
sg17
(lp67
(lp68
I01
aI01
aI01
aI01
aI01
aI01
aI01
aI01
aI01
aI01
aI01
aI01
aI01
aI01
aI01
aI01
aI01
aI01
aa(lp69
I01
aI00
aI00
aI00
aI00
aI00
aI00
aI00
aI00
aI00
aI00
aI00
aI00
aI00
aI00
aI00
aI00
aI01
aa(lp70
I01
aI01
aI01
aI01
aI01
aI01
aI01
aI01
aI01
aI01
aI01
aI01
aI01
aI01
aI01
aI01
aI00
aI01
aa(lp71
I01
aI00
aI00
aI00
aI00
aI00
aI00
aI00
aI00
aI00
aI00
aI00
aI00
aI00
aI00
aI00
aI00
aI01
aa(lp72
I01
aI00
aI01
aI01
aI01
aI01
aI01
aI01
aI01
aI01
aI01
aI01
aI01
aI01
aI01
aI01
aI01
aI01
aa(lp73
I01
aI00
aI01
aI00
aI01
aI00
aI01
aI00
aI00
aI00
aI00
aI00
aI00
aI00
aI00
aI00
aI00
aI01
aa(lp74
I01
aI00
aI00
aI00
aI00
aI00
aI00
aI00
aI00
aI01
aI00
aI00
aI01
aI01
aI01
aI00
aI01
aI01
aa(lp75
I01
aI01
aI01
aI01
aI01
aI00
aI01
aI01
aI01
aI01
aI00
aI01
aI01
aI00
aI00
aI00
aI00
aI01
aa(lp76
I01
aI00
aI00
aI01
aI00
aI00
aI01
aI00
aI00
aI00
aI00
aI00
aI01
aI00
aI00
aI00
aI00
aI01
aa(lp77
I01
aI00
aI00
aI00
aI00
aI00
aI01
aI01
aI01
aI01
aI01
aI01
aI01
aI00
aI01
aI01
aI01
aI01
aa(lp78
I01
aI00
aI00
aI01
aI00
aI00
aI01
aI00
aI00
aI00
aI00
aI00
aI00
aI00
aI00
aI00
aI00
aI01
aa(lp79
I01
aI00
aI00
aI00
aI00
aI00
aI01
aI00
aI00
aI00
aI00
aI01
aI00
aI00
aI01
aI00
aI00
aI01
aa(lp80
I01
aI01
aI01
aI00
aI01
aI01
aI01
aI01
aI00
aI01
aI00
aI01
aI01
aI01
aI01
aI01
aI01
aI01
aa(lp81
I01
aI00
aI01
aI00
aI00
aI00
aI00
aI00
aI00
aI00
aI00
aI00
aI00
aI00
aI00
aI01
aI00
aI01
aa(lp82
I01
aI00
aI00
aI00
aI01
aI00
aI00
aI01
aI00
aI01
aI00
aI01
aI00
aI01
aI00
aI01
aI00
aI01
aa(lp83
I01
aI01
aI01
aI01
aI01
aI00
aI01
aI01
aI01
aI01
aI01
aI01
aI01
aI01
aI00
aI00
aI00
aI01
aa(lp84
I01
aI00
aI00
aI00
aI00
aI00
aI00
aI00
aI00
aI00
aI00
aI00
aI00
aI00
aI00
aI01
aI00
aI01
aa(lp85
I01
aI00
aI01
aI00
aI00
aI00
aI00
aI00
aI00
aI00
aI00
aI00
aI00
aI00
aI00
aI00
aI00
aI01
aa(lp86
I01
aI00
aI00
aI00
aI01
aI01
aI01
aI01
aI01
aI01
aI01
aI01
aI00
aI01
aI01
aI01
aI01
aI01
aa(lp87
I01
aI00
aI01
aI00
aI01
aI00
aI01
aI00
aI01
aI00
aI01
aI00
aI00
aI01
aI00
aI00
aI00
aI01
aa(lp88
I01
aI00
aI01
aI00
aI00
aI00
aI00
aI00
aI00
aI00
aI00
aI00
aI00
aI00
aI00
aI01
aI00
aI01
aa(lp89
I01
aI01
aI01
aI01
aI01
aI01
aI01
aI00
aI01
aI00
aI01
aI01
aI01
aI01
aI00
aI01
aI01
aI01
aa(lp90
I01
aI00
aI00
aI01
aI00
aI00
aI01
aI00
aI00
aI00
aI00
aI01
aI00
aI00
aI00
aI00
aI00
aI01
aa(lp91
I01
aI00
aI00
aI00
aI00
aI00
aI00
aI00
aI00
aI00
aI00
aI01
aI00
aI00
aI01
aI00
aI00
aI01
aa(lp92
I01
aI01
aI01
aI01
aI00
aI01
aI01
aI01
aI01
aI01
aI01
aI01
aI00
aI00
aI00
aI00
aI00
aI01
aa(lp93
I01
aI00
aI00
aI00
aI00
aI01
aI00
aI00
aI00
aI00
aI00
aI01
aI00
aI00
aI01
aI00
aI00
aI01
aa(lp94
I01
aI00
aI00
aI00
aI00
aI01
aI01
aI00
aI01
aI01
aI01
aI01
aI00
aI01
aI01
aI01
aI01
aI01
aa(lp95
I01
aI01
aI00
aI01
aI01
aI01
aI00
aI00
aI01
aI00
aI00
aI00
aI00
aI00
aI00
aI00
aI00
aI01
aa(lp96
I01
aI00
aI00
aI00
aI00
aI00
aI00
aI00
aI00
aI00
aI00
aI01
aI00
aI01
aI00
aI01
aI00
aI01
aa(lp97
I01
aI01
aI01
aI01
aI01
aI01
aI01
aI01
aI01
aI01
aI01
aI01
aI01
aI01
aI01
aI01
aI00
aI01
aa(lp98
I01
aI00
aI00
aI00
aI00
aI00
aI00
aI00
aI00
aI00
aI00
aI00
aI00
aI00
aI00
aI00
aI00
aI01
aa(lp99
I01
aI00
aI01
aI01
aI01
aI01
aI01
aI01
aI01
aI01
aI01
aI01
aI01
aI01
aI01
aI01
aI01
aI01
aa(lp100
I01
aI00
aI00
aI00
aI00
aI00
aI00
aI00
aI00
aI00
aI00
aI00
aI00
aI00
aI00
aI00
aI00
aI01
aa(lp101
I01
aI01
aI01
aI01
aI01
aI01
aI01
aI01
aI01
aI01
aI01
aI01
aI01
aI01
aI01
aI01
aI01
aI01
aasg53
I18
sbsS'totalFood'
p102
I60
sS'layoutText'
p103
(lp104
S'%%%%%%%%%%%%%%%%%%%%%%%%%%%%%%%%%%'
p105
aS'%   %.% .%  %..   %..%    %.   %4%'
p106
aS'% % %  . % .%%% % %.%%    % %% %2%'
p107
aS'% % % %o % %% .   % o .% %%  % % %'
p108
aS'% % % %     % %%  %% %   .% %% % %'
p109
aS'% % %.%%%% .%..%     %    . .% % %'
p110
aS'% % % .%.% %% %%  %  %%%%%% %% % %'
p111
aS'% % %.  .%.  ..%  %% %  %.%  % % %'
p112
aS'% % % %% %  % %%  %.    %.% .% % %'
p113
aS'% % %. %.%    .%  %% %  % %% % % %'
p114
aS'% % %  %.%  % %%  %..  .%.  .% % %'
p115
aS'% % %% %%%%%%  %  %% %% %.%. % % %'
p116
aS'% % %. .    %     %..%. %%%%.% % %'
p117
aS'% % %% %.   % %%  %% %     % % % %'
p118
aS'% % %  %% %. o %   . %% % o% % % %'
p119
aS'%1% %% %    %%.% % %%%. % .  % % %'
p120
aS'%3%   .%    %..%   ..%  %. %.%   %'
p121
aS'%%%%%%%%%%%%%%%%%%%%%%%%%%%%%%%%%%'
p122
asbsS'blueTeamName'
p123
S'Blue'
p124
sS'actions'
p125
(lp126
(I0
S'North'
p127
tp128
a(I1
S'South'
p129
tp130
a(I2
g127
tp131
a(I3
g129
tp132
a(I0
g127
tp133
a(I1
g129
tp134
a(I2
g127
tp135
a(I3
g129
tp136
a(I0
g127
tp137
a(I1
g129
tp138
a(I2
g127
tp139
a(I3
g129
tp140
a(I0
g127
tp141
a(I1
g129
tp142
a(I2
g127
tp143
a(I3
g129
tp144
a(I0
g127
tp145
a(I1
g129
tp146
a(I2
g127
tp147
a(I3
g129
tp148
a(I0
g127
tp149
a(I1
g129
tp150
a(I2
g127
tp151
a(I3
g129
tp152
a(I0
g127
tp153
a(I1
g129
tp154
a(I2
g127
tp155
a(I3
g129
tp156
a(I0
g127
tp157
a(I1
g129
tp158
a(I2
g127
tp159
a(I3
g129
tp160
a(I0
g127
tp161
a(I1
g129
tp162
a(I2
g127
tp163
a(I3
g129
tp164
a(I0
g127
tp165
a(I1
g129
tp166
a(I2
g127
tp167
a(I3
g129
tp168
a(I0
g127
tp169
a(I1
g129
tp170
a(I2
g127
tp171
a(I3
g129
tp172
a(I0
g127
tp173
a(I1
g129
tp174
a(I2
g127
tp175
a(I3
g129
tp176
a(I0
g127
tp177
a(I1
g129
tp178
a(I2
g127
tp179
a(I3
g129
tp180
a(I0
g127
tp181
a(I1
g129
tp182
a(I2
g127
tp183
a(I3
g129
tp184
a(I0
S'East'
p185
tp186
a(I1
S'West'
p187
tp188
a(I2
g127
tp189
a(I3
g129
tp190
a(I0
g185
tp191
a(I1
g187
tp192
a(I2
g185
tp193
a(I3
g187
tp194
a(I0
g129
tp195
a(I1
g127
tp196
a(I2
g185
tp197
a(I3
g187
tp198
a(I0
g129
tp199
a(I1
g127
tp200
a(I2
g129
tp201
a(I3
g127
tp202
a(I0
g129
tp203
a(I1
g127
tp204
a(I2
g129
tp205
a(I3
g127
tp206
a(I0
g129
tp207
a(I1
g127
tp208
a(I2
g129
tp209
a(I3
g127
tp210
a(I0
g129
tp211
a(I1
g127
tp212
a(I2
g129
tp213
a(I3
g127
tp214
a(I0
g129
tp215
a(I1
g127
tp216
a(I2
g129
tp217
a(I3
g127
tp218
a(I0
g129
tp219
a(I1
g127
tp220
a(I2
g129
tp221
a(I3
g127
tp222
a(I0
g129
tp223
a(I1
g127
tp224
a(I2
g129
tp225
a(I3
g127
tp226
a(I0
g129
tp227
a(I1
g127
tp228
a(I2
g129
tp229
a(I3
g127
tp230
a(I0
g129
tp231
a(I1
g127
tp232
a(I2
g129
tp233
a(I3
g127
tp234
a(I0
g129
tp235
a(I1
g127
tp236
a(I2
g129
tp237
a(I3
g127
tp238
a(I0
g129
tp239
a(I1
g127
tp240
a(I2
g129
tp241
a(I3
g127
tp242
a(I0
g129
tp243
a(I1
g127
tp244
a(I2
g129
tp245
a(I3
g127
tp246
a(I0
g129
tp247
a(I1
g127
tp248
a(I2
g129
tp249
a(I3
g127
tp250
a(I0
g129
tp251
a(I1
g127
tp252
a(I2
g129
tp253
a(I3
g127
tp254
a(I0
g185
tp255
a(I1
g187
tp256
a(I2
g129
tp257
a(I3
g127
tp258
a(I0
g185
tp259
a(I1
g187
tp260
a(I2
g185
tp261
a(I3
g187
tp262
a(I0
g185
tp263
a(I1
g187
tp264
a(I2
g185
tp265
a(I3
g187
tp266
a(I0
g127
tp267
a(I1
g129
tp268
a(I2
g185
tp269
a(I3
g187
tp270
a(I0
g127
tp271
a(I1
g129
tp272
a(I2
g127
tp273
a(I3
g129
tp274
a(I0
g127
tp275
a(I1
g129
tp276
a(I2
g127
tp277
a(I3
g129
tp278
a(I0
g127
tp279
a(I1
g129
tp280
a(I2
g127
tp281
a(I3
g129
tp282
a(I0
g185
tp283
a(I1
g187
tp284
a(I2
g127
tp285
a(I3
g129
tp286
a(I0
g185
tp287
a(I1
g187
tp288
a(I2
g127
tp289
a(I3
g129
tp290
a(I0
g185
tp291
a(I1
g187
tp292
a(I2
g127
tp293
a(I3
g129
tp294
a(I0
g185
tp295
a(I1
g127
tp296
a(I2
g127
tp297
a(I3
g185
tp298
a(I0
g129
tp299
a(I1
g187
tp300
a(I2
g187
tp301
a(I3
g129
tp302
a(I0
g185
tp303
a(I1
g187
tp304
a(I2
g127
tp305
a(I3
g187
tp306
a(I0
g129
tp307
a(I1
g127
tp308
a(I2
g127
tp309
a(I3
g127
tp310
a(I0
g185
tp311
a(I1
g187
tp312
a(I2
g185
tp313
a(I3
g127
tp314
a(I0
g185
tp315
a(I1
g187
tp316
a(I2
g127
tp317
a(I3
g127
tp318
a(I0
g127
tp319
a(I1
g129
tp320
a(I2
g187
tp321
a(I3
g187
tp322
a(I0
g127
tp323
a(I1
g129
tp324
a(I2
g129
tp325
a(I3
g187
tp326
a(I0
g185
tp327
a(I1
g187
tp328
a(I2
g185
tp329
a(I3
g187
tp330
a(I0
g185
tp331
a(I1
g187
tp332
a(I2
g185
tp333
a(I3
g187
tp334
a(I0
g185
tp335
a(I1
g187
tp336
a(I2
g185
tp337
a(I3
g127
tp338
a(I0
g129
tp339
a(I1
g127
tp340
a(I2
g129
tp341
a(I3
g187
tp342
a(I0
g185
tp343
a(I1
g127
tp344
a(I2
g129
tp345
a(I3
g129
tp346
a(I0
g129
tp347
a(I1
g187
tp348
a(I2
g129
tp349
a(I3
g185
tp350
a(I0
g185
tp351
a(I1
g187
tp352
a(I2
g127
tp353
a(I3
g185
tp354
a(I0
g185
tp355
a(I1
g187
tp356
a(I2
g127
tp357
a(I3
g127
tp358
a(I0
g185
tp359
a(I1
g187
tp360
a(I2
g127
tp361
a(I3
g185
tp362
a(I0
g127
tp363
a(I1
g129
tp364
a(I2
g187
tp365
a(I3
g129
tp366
a(I0
g127
tp367
a(I1
g129
tp368
a(I2
g187
tp369
a(I3
g185
tp370
a(I0
g187
tp371
a(I1
g185
tp372
a(I2
g127
tp373
a(I3
g185
tp374
a(I0
g185
tp375
a(I1
g187
tp376
a(I2
g187
tp377
a(I3
g185
tp378
a(I0
g127
tp379
a(I1
g127
tp380
a(I2
g127
tp381
a(I3
g187
tp382
a(I0
g127
tp383
a(I1
g127
tp384
a(I2
g127
tp385
a(I3
g127
tp386
a(I0
g187
tp387
a(I1
g185
tp388
a(I2
g127
tp389
a(I3
g127
tp390
a(I0
g185
tp391
a(I1
g185
tp392
a(I2
g127
tp393
a(I3
g185
tp394
a(I0
g127
tp395
a(I1
g185
tp396
a(I2
g185
tp397
a(I3
g187
tp398
a(I0
g127
tp399
a(I1
g129
tp400
a(I2
g185
tp401
a(I3
g127
tp402
a(I0
g187
tp403
a(I1
g129
tp404
a(I2
g129
tp405
a(I3
g127
tp406
a(I0
g185
tp407
a(I1
S'Stop'
p408
tp409
a(I2
g185
tp410
a(I3
g185
tp411
a(I0
g185
tp412
a(I1
g408
tp413
a(I2
g129
tp414
a(I3
g185
tp415
a(I0
g185
tp416
a(I1
g408
tp417
a(I2
g185
tp418
a(I3
g185
tp419
a(I0
g129
tp420
a(I1
g408
tp421
a(I2
g185
tp422
a(I3
g129
tp423
a(I0
g185
tp424
a(I1
g408
tp425
a(I2
g129
tp426
a(I3
g129
tp427
a(I0
g129
tp428
a(I1
g408
tp429
a(I2
g129
tp430
a(I3
g129
tp431
a(I0
g129
tp432
a(I1
g408
tp433
a(I2
g129
tp434
a(I3
g129
tp435
a(I0
g129
tp436
a(I1
g408
tp437
a(I2
g185
tp438
a(I3
g129
tp439
a(I0
g187
tp440
a(I1
g408
tp441
a(I2
g129
tp442
a(I3
g129
tp443
a(I0
g185
tp444
a(I1
g408
tp445
a(I2
g129
tp446
a(I3
g129
tp447
a(I0
g129
tp448
a(I1
g408
tp449
a(I2
g185
tp450
a(I3
g129
tp451
a(I0
g129
tp452
a(I1
g408
tp453
a(I2
g185
tp454
a(I3
g129
tp455
a(I0
g129
tp456
a(I1
g408
tp457
a(I2
g129
tp458
a(I3
g129
tp459
a(I0
g187
tp460
a(I1
g408
tp461
a(I2
g129
tp462
a(I3
g129
tp463
a(I0
g185
tp464
a(I1
g408
tp465
a(I2
g129
tp466
a(I3
g129
tp467
a(I0
g127
tp468
a(I1
g408
tp469
a(I2
g129
tp470
a(I3
g129
tp471
a(I0
g127
tp472
a(I1
g408
tp473
a(I2
g129
tp474
a(I3
g129
tp475
a(I0
g185
tp476
a(I1
g408
tp477
a(I2
g185
tp478
a(I3
g129
tp479
a(I0
g185
tp480
a(I1
g408
tp481
a(I2
g129
tp482
a(I3
g185
tp483
a(I0
g129
tp484
a(I1
g408
tp485
a(I2
g129
tp486
a(I3
g185
tp487
a(I0
g129
tp488
a(I1
g408
tp489
a(I2
g187
tp490
a(I3
g127
tp491
a(I0
g129
tp492
a(I1
g408
tp493
a(I2
g185
tp494
a(I3
g127
tp495
a(I0
g185
tp496
a(I1
g408
tp497
a(I2
g127
tp498
a(I3
g127
tp499
a(I0
g127
tp500
a(I1
g408
tp501
a(I2
g127
tp502
a(I3
g127
tp503
a(I0
g185
tp504
a(I1
g408
tp505
a(I2
g187
tp506
a(I3
g127
tp507
a(I0
g185
tp508
a(I1
g408
tp509
a(I2
g127
tp510
a(I3
g127
tp511
a(I0
g129
tp512
a(I1
g408
tp513
a(I2
g127
tp514
a(I3
g127
tp515
a(I0
g127
tp516
a(I1
g408
tp517
a(I2
g185
tp518
a(I3
g127
tp519
a(I0
g127
tp520
a(I1
g408
tp521
a(I2
g185
tp522
a(I3
g127
tp523
a(I0
g127
tp524
a(I1
g408
tp525
a(I2
g185
tp526
a(I3
g127
tp527
a(I0
g127
tp528
a(I1
g408
tp529
a(I2
g127
tp530
a(I3
g127
tp531
a(I0
g127
tp532
a(I1
g408
tp533
a(I2
g127
tp534
a(I3
g127
tp535
a(I0
g187
tp536
a(I1
g408
tp537
a(I2
g127
tp538
a(I3
g127
tp539
a(I0
g127
tp540
a(I1
g408
tp541
a(I2
g127
tp542
a(I3
g127
tp543
a(I0
g185
tp544
a(I1
g408
tp545
a(I2
g127
tp546
a(I3
g127
tp547
a(I0
g127
tp548
a(I1
g408
tp549
a(I2
g127
tp550
a(I3
g129
tp551
a(I0
g127
tp552
a(I1
g408
tp553
a(I2
g127
tp554
a(I3
g129
tp555
a(I0
g127
tp556
a(I1
g129
tp557
a(I2
g127
tp558
a(I3
g129
tp559
a(I0
g187
tp560
a(I1
g129
tp561
a(I2
g127
tp562
a(I3
g129
tp563
a(I0
g127
tp564
a(I1
g129
tp565
a(I2
g187
tp566
a(I3
g129
tp567
a(I0
g127
tp568
a(I1
g129
tp569
a(I2
g187
tp570
a(I3
g129
tp571
a(I0
g185
tp572
a(I1
g129
tp573
a(I2
g187
tp574
a(I3
g129
tp575
a(I0
g187
tp576
a(I1
g129
tp577
a(I2
g129
tp578
a(I3
g129
tp579
a(I0
g187
tp580
a(I1
g129
tp581
a(I2
g129
tp582
a(I3
g129
tp583
a(I0
g187
tp584
a(I1
g129
tp585
a(I2
g129
tp586
a(I3
g129
tp587
a(I0
g127
tp588
a(I1
g129
tp589
a(I2
g129
tp590
a(I3
g129
tp591
a(I0
g187
tp592
a(I1
g129
tp593
a(I2
g187
tp594
a(I3
g129
tp595
a(I0
g187
tp596
a(I1
g129
tp597
a(I2
g187
tp598
a(I3
g129
tp599
a(I0
g187
tp600
a(I1
g129
tp601
a(I2
g129
tp602
a(I3
g129
tp603
a(I0
g127
tp604
a(I1
g129
tp605
a(I2
g187
tp606
a(I3
g129
tp607
a(I0
g187
tp608
a(I1
g129
tp609
a(I2
g129
tp610
a(I3
g187
tp611
a(I0
g187
tp612
a(I1
g187
tp613
a(I2
g129
tp614
a(I3
g187
tp615
a(I0
g187
tp616
a(I1
g187
tp617
a(I2
g185
tp618
a(I3
g127
tp619
a(I0
g127
tp620
a(I1
g127
tp621
a(I2
g127
tp622
a(I3
g127
tp623
a(I0
g127
tp624
a(I1
g127
tp625
a(I2
g127
tp626
a(I3
g127
tp627
a(I0
g185
tp628
a(I1
g127
tp629
a(I2
g127
tp630
a(I3
g127
tp631
a(I0
g187
tp632
a(I1
g127
tp633
a(I2
g185
tp634
a(I3
g127
tp635
a(I0
g129
tp636
a(I1
g127
tp637
a(I2
g185
tp638
a(I3
g127
tp639
a(I0
g129
tp640
a(I1
g127
tp641
a(I2
g185
tp642
a(I3
g127
tp643
a(I0
g185
tp644
a(I1
g127
tp645
a(I2
g187
tp646
a(I3
g127
tp647
a(I0
g185
tp648
a(I1
g127
tp649
a(I2
g127
tp650
a(I3
g127
tp651
a(I0
g185
tp652
a(I1
g127
tp653
a(I2
g127
tp654
a(I3
g127
tp655
a(I0
g129
tp656
a(I1
g127
tp657
a(I2
g185
tp658
a(I3
g127
tp659
a(I0
g129
tp660
a(I1
g127
tp661
a(I2
g187
tp662
a(I3
g127
tp663
a(I0
g185
tp664
a(I1
g127
tp665
a(I2
g127
tp666
a(I3
g127
tp667
a(I0
g185
tp668
a(I1
g127
tp669
a(I2
g127
tp670
a(I3
g127
tp671
a(I0
g185
tp672
a(I1
g127
tp673
a(I2
g185
tp674
a(I3
g127
tp675
a(I0
g185
tp676
a(I1
g127
tp677
a(I2
g185
tp678
a(I3
g187
tp679
a(I0
g185
tp680
a(I1
g187
tp681
a(I2
g127
tp682
a(I3
g187
tp683
a(I0
g127
tp684
a(I1
g187
tp685
a(I2
g127
tp686
a(I3
g187
tp687
a(I0
g127
tp688
a(I1
g187
tp689
a(I2
g185
tp690
a(I3
g129
tp691
a(I0
g127
tp692
a(I1
g408
tp693
a(I2
g187
tp694
a(I3
g129
tp695
a(I0
g127
tp696
a(I1
g129
tp697
a(I2
g187
tp698
a(I3
g129
tp699
a(I0
g129
tp700
a(I1
g129
tp701
a(I2
g187
tp702
a(I3
g129
tp703
a(I0
g129
tp704
a(I1
g129
tp705
a(I2
g185
tp706
a(I3
g129
tp707
a(I0
g129
tp708
a(I1
g129
tp709
a(I2
g185
tp710
a(I3
g129
tp711
a(I0
g129
tp712
a(I1
g129
tp713
a(I2
g185
tp714
a(I3
g129
tp715
a(I0
g129
tp716
a(I1
g129
tp717
a(I2
g187
tp718
a(I3
g129
tp719
a(I0
g129
tp720
a(I1
g129
tp721
a(I2
g187
tp722
a(I3
g129
tp723
a(I0
g129
tp724
a(I1
g129
tp725
a(I2
g187
tp726
a(I3
g129
tp727
a(I0
g185
tp728
a(I1
g129
tp729
a(I2
g185
tp730
a(I3
g129
tp731
a(I0
g129
tp732
a(I1
g129
tp733
a(I2
g185
tp734
a(I3
g129
tp735
a(I0
g129
tp736
a(I1
g129
tp737
a(I2
g129
tp738
a(I3
g129
tp739
a(I0
g187
tp740
a(I1
g129
tp741
a(I2
g129
tp742
a(I3
g129
tp743
a(I0
g187
tp744
a(I1
g129
tp745
a(I2
g185
tp746
a(I3
g129
tp747
a(I0
g187
tp748
a(I1
g129
tp749
a(I2
g129
tp750
a(I3
g129
tp751
a(I0
g129
tp752
a(I1
g187
tp753
a(I2
g129
tp754
a(I3
g187
tp755
a(I0
g127
tp756
a(I1
g187
tp757
a(I2
g129
tp758
a(I3
g187
tp759
a(I0
g127
tp760
a(I1
g127
tp761
a(I2
g129
tp762
a(I3
g127
tp763
a(I0
g127
tp764
a(I1
g127
tp765
a(I2
g129
tp766
a(I3
g127
tp767
a(I0
g127
tp768
a(I1
g127
tp769
a(I2
g129
tp770
a(I3
g127
tp771
a(I0
g129
tp772
a(I1
g127
tp773
a(I2
g129
tp774
a(I3
g127
tp775
a(I0
g129
tp776
a(I1
g127
tp777
a(I2
g129
tp778
a(I3
g127
tp779
a(I0
g129
tp780
a(I1
g127
tp781
a(I2
g129
tp782
a(I3
g127
tp783
a(I0
g185
tp784
a(I1
g127
tp785
a(I2
g187
tp786
a(I3
g127
tp787
a(I0
g185
tp788
a(I1
g127
tp789
a(I2
g187
tp790
a(I3
g127
tp791
a(I0
g185
tp792
a(I1
g127
tp793
a(I2
g187
tp794
a(I3
g127
tp795
a(I0
g127
tp796
a(I1
g127
tp797
a(I2
g129
tp798
a(I3
g127
tp799
a(I0
g127
tp800
a(I1
g127
tp801
a(I2
g129
tp802
a(I3
g127
tp803
a(I0
g187
tp804
a(I1
g127
tp805
a(I2
g187
tp806
a(I3
g127
tp807
a(I0
g127
tp808
a(I1
g127
tp809
a(I2
g187
tp810
a(I3
g127
tp811
a(I0
g127
tp812
a(I1
g127
tp813
a(I2
g127
tp814
a(I3
g127
tp815
a(I0
g127
tp816
a(I1
g127
tp817
a(I2
g187
tp818
a(I3
g127
tp819
a(I0
g187
tp820
a(I1
g187
tp821
a(I2
g187
tp822
a(I3
g187
tp823
a(I0
g187
tp824
a(I1
g187
tp825
a(I2
g187
tp826
a(I3
g187
tp827
a(I0
g187
tp828
a(I1
g187
tp829
a(I2
g127
tp830
a(I3
g187
tp831
a(I0
g187
tp832
a(I1
g129
tp833
a(I2
g187
tp834
a(I3
g129
tp835
a(I0
g187
tp836
a(I1
g129
tp837
a(I2
g187
tp838
a(I3
g129
tp839
a(I0
g127
tp840
a(I1
g129
tp841
a(I2
g129
tp842
a(I3
g129
tp843
a(I0
g127
tp844
a(I1
g129
tp845
a(I2
g129
tp846
a(I3
g129
tp847
a(I0
g187
tp848
a(I1
g187
tp849
a(I2
g129
tp850
a(I3
g187
tp851
a(I0
g187
tp852
a(I1
g187
tp853
a(I2
g129
tp854
a(I3
g187
tp855
a(I0
g129
tp856
a(I1
g127
tp857
a(I2
g187
tp858
a(I3
g187
tp859
a(I0
g129
tp860
a(I1
g187
tp861
a(I2
g187
tp862
a(I3
g187
tp863
a(I0
g187
tp864
a(I1
g187
tp865
a(I2
g187
tp866
a(I3
g187
tp867
a(I0
g187
tp868
a(I1
g187
tp869
a(I2
g127
tp870
a(I3
g127
tp871
a(I0
g187
tp872
a(I1
g127
tp873
a(I2
g127
tp874
a(I3
g127
tp875
a(I0
g187
tp876
asS'length'
p877
I1200
sS'agents'
p878
(lp879
(igame
Agent
p880
(dp881
S'index'
p882
I0
sba(igame
Agent
p883
(dp884
g882
I0
sba(igame
Agent
p885
(dp886
g882
I0
sba(igame
Agent
p887
(dp888
g882
I0
sbasS'redTeamName'
p889
S'Red'
p890
s.