(dp1
S'layout'
p2
(ilayout
Layout
p3
(dp4
S'capsules'
p5
(lp6
(I30
I4
tp7
a(I26
I7
tp8
a(I7
I10
tp9
a(I3
I13
tp10
asS'numGhosts'
p11
I4
sS'food'
p12
(igame
Grid
p13
(dp14
S'CELLS_PER_INT'
p15
I30
sS'width'
p16
I34
sS'data'
p17
(lp18
(lp19
I00
aI00
aI00
aI00
aI00
aI00
aI00
aI00
aI00
aI00
aI00
aI00
aI00
aI00
aI00
aI00
aI00
aI00
aa(lp20
I00
aI00
aI00
aI00
aI00
aI00
aI00
aI00
aI00
aI00
aI00
aI00
aI00
aI00
aI00
aI00
aI00
aI00
aa(lp21
I00
aI00
aI00
aI00
aI00
aI00
aI00
aI00
aI00
aI00
aI00
aI00
aI00
aI00
aI00
aI00
aI00
aI00
aa(lp22
I00
aI00
aI00
aI00
aI00
aI00
aI00
aI01
aI00
aI00
aI00
aI01
aI01
aI00
aI00
aI00
aI00
aI00
aa(lp23
I00
aI00
aI00
aI00
aI00
aI00
aI00
aI00
aI00
aI00
aI00
aI00
aI00
aI00
aI00
aI00
aI00
aI00
aa(lp24
I00
aI00
aI00
aI00
aI00
aI00
aI00
aI01
aI01
aI00
aI01
aI00
aI00
aI00
aI00
aI00
aI00
aI00
aa(lp25
I00
aI00
aI00
aI00
aI00
aI00
aI00
aI00
aI00
aI00
aI00
aI00
aI00
aI00
aI00
aI00
aI00
aI00
aa(lp26
I00
aI01
aI01
aI00
aI00
aI01
aI00
aI01
aI00
aI00
aI00
aI00
aI01
aI00
aI00
aI00
aI01
aI00
aa(lp27
I00
aI00
aI00
aI00
aI00
aI00
aI00
aI00
aI00
aI00
aI00
aI00
aI00
aI00
aI00
aI01
aI00
aI00
aa(lp28
I00
aI01
aI00
aI00
aI00
aI01
aI00
aI01
aI00
aI00
aI01
aI00
aI01
aI00
aI00
aI00
aI00
aI00
aa(lp29
I00
aI00
aI00
aI00
aI00
aI00
aI00
aI00
aI00
aI00
aI00
aI00
aI00
aI00
aI01
aI00
aI00
aI00
aa(lp30
I00
aI00
aI00
aI00
aI00
aI00
aI00
aI00
aI00
aI01
aI01
aI01
aI01
aI00
aI01
aI00
aI00
aI00
aa(lp31
I00
aI00
aI00
aI00
aI00
aI00
aI00
aI00
aI00
aI00
aI00
aI00
aI00
aI00
aI00
aI00
aI00
aI00
aa(lp32
I00
aI01
aI00
aI01
aI00
aI00
aI00
aI00
aI00
aI00
aI01
aI00
aI01
aI00
aI00
aI00
aI00
aI00
aa(lp33
I00
aI00
aI00
aI00
aI00
aI00
aI00
aI00
aI01
aI00
aI00
aI00
aI00
aI00
aI00
aI00
aI01
aI00
aa(lp34
I00
aI00
aI00
aI00
aI00
aI00
aI00
aI00
aI00
aI00
aI00
aI00
aI00
aI00
aI00
aI00
aI00
aI00
aa(lp35
I00
aI00
aI00
aI00
aI00
aI00
aI00
aI00
aI00
aI00
aI00
aI00
aI00
aI00
aI00
aI00
aI00
aI00
aa(lp36
I00
aI00
aI00
aI00
aI00
aI00
aI00
aI00
aI00
aI00
aI00
aI00
aI00
aI00
aI00
aI00
aI00
aI00
aa(lp37
I00
aI00
aI00
aI00
aI00
aI00
aI00
aI00
aI00
aI00
aI00
aI00
aI00
aI00
aI00
aI00
aI00
aI00
aa(lp38
I00
aI01
aI00
aI00
aI00
aI00
aI00
aI00
aI00
aI01
aI00
aI00
aI00
aI00
aI00
aI00
aI00
aI00
aa(lp39
I00
aI00
aI00
aI00
aI00
aI01
aI00
aI01
aI00
aI00
aI00
aI00
aI00
aI00
aI01
aI00
aI01
aI00
aa(lp40
I00
aI00
aI00
aI00
aI00
aI00
aI00
aI00
aI00
aI00
aI00
aI00
aI00
aI00
aI00
aI00
aI00
aI00
aa(lp41
I00
aI00
aI00
aI01
aI00
aI01
aI01
aI01
aI01
aI00
aI00
aI00
aI00
aI00
aI00
aI00
aI00
aI00
aa(lp42
I00
aI00
aI00
aI01
aI00
aI00
aI00
aI00
aI00
aI00
aI00
aI00
aI00
aI00
aI00
aI00
aI00
aI00
aa(lp43
I00
aI00
aI00
aI00
aI00
aI01
aI00
aI01
aI00
aI00
aI01
aI00
aI01
aI00
aI00
aI00
aI01
aI00
aa(lp44
I00
aI00
aI01
aI00
aI00
aI00
aI00
aI00
aI00
aI00
aI00
aI00
aI00
aI00
aI00
aI00
aI00
aI00
aa(lp45
I00
aI01
aI00
aI00
aI00
aI01
aI00
aI00
aI00
aI00
aI01
aI00
aI01
aI00
aI00
aI01
aI01
aI00
aa(lp46
I00
aI00
aI00
aI00
aI00
aI00
aI00
aI00
aI00
aI00
aI00
aI00
aI00
aI00
aI00
aI00
aI00
aI00
aa(lp47
I00
aI00
aI00
aI00
aI00
aI00
aI00
aI01
aI00
aI01
aI01
aI00
aI00
aI00
aI00
aI00
aI00
aI00
aa(lp48
I00
aI00
aI00
aI00
aI00
aI00
aI00
aI00
aI00
aI00
aI00
aI00
aI00
aI00
aI00
aI00
aI00
aI00
aa(lp49
I00
aI00
aI00
aI00
aI00
aI01
aI01
aI00
aI00
aI00
aI01
aI00
aI00
aI00
aI00
aI00
aI00
aI00
aa(lp50
I00
aI00
aI00
aI00
aI00
aI00
aI00
aI00
aI00
aI00
aI00
aI00
aI00
aI00
aI00
aI00
aI00
aI00
aa(lp51
I00
aI00
aI00
aI00
aI00
aI00
aI00
aI00
aI00
aI00
aI00
aI00
aI00
aI00
aI00
aI00
aI00
aI00
aa(lp52
I00
aI00
aI00
aI00
aI00
aI00
aI00
aI00
aI00
aI00
aI00
aI00
aI00
aI00
aI00
aI00
aI00
aI00
aasS'height'
p53
I18
sbsS'agentPositions'
p54
(lp55
(I00
(I1
I2
tp56
tp57
a(I00
(I32
I15
tp58
tp59
a(I00
(I1
I1
tp60
tp61
a(I00
(I32
I16
tp62
tp63
asg53
I18
sg16
I34
sS'walls'
p64
(igame
Grid
p65
(dp66
g15
I30
sg16
I34
sg17
(lp67
(lp68
I01
aI01
aI01
aI01
aI01
aI01
aI01
aI01
aI01
aI01
aI01
aI01
aI01
aI01
aI01
aI01
aI01
aI01
aa(lp69
I01
aI00
aI00
aI00
aI00
aI00
aI00
aI00
aI00
aI00
aI00
aI00
aI00
aI00
aI00
aI00
aI00
aI01
aa(lp70
I01
aI01
aI01
aI01
aI01
aI01
aI01
aI01
aI01
aI01
aI01
aI01
aI01
aI01
aI01
aI01
aI00
aI01
aa(lp71
I01
aI00
aI00
aI00
aI00
aI00
aI00
aI00
aI00
aI00
aI00
aI00
aI00
aI00
aI00
aI00
aI00
aI01
aa(lp72
I01
aI01
aI01
aI01
aI00
aI01
aI01
aI01
aI01
aI01
aI00
aI01
aI01
aI01
aI01
aI01
aI01
aI01
aa(lp73
I01
aI00
aI00
aI00
aI00
aI00
aI00
aI00
aI00
aI01
aI00
aI00
aI00
aI00
aI00
aI00
aI00
aI01
aa(lp74
I01
aI01
aI01
aI00
aI01
aI01
aI01
aI01
aI01
aI01
aI01
aI01
aI01
aI01
aI00
aI01
aI00
aI01
aa(lp75
I01
aI00
aI00
aI00
aI00
aI00
aI01
aI00
aI01
aI00
aI00
aI00
aI00
aI01
aI00
aI01
aI00
aI01
aa(lp76
I01
aI01
aI01
aI01
aI00
aI01
aI01
aI00
aI00
aI00
aI01
aI00
aI01
aI01
aI00
aI00
aI00
aI01
aa(lp77
I01
aI00
aI00
aI00
aI00
aI00
aI01
aI00
aI01
aI00
aI00
aI00
aI00
aI01
aI00
aI01
aI00
aI01
aa(lp78
I01
aI00
aI01
aI00
aI01
aI01
aI01
aI00
aI01
aI01
aI01
aI01
aI01
aI01
aI00
aI01
aI00
aI01
aa(lp79
I01
aI00
aI01
aI00
aI00
aI00
aI00
aI00
aI00
aI00
aI00
aI00
aI00
aI01
aI00
aI01
aI00
aI01
aa(lp80
I01
aI00
aI01
aI01
aI01
aI01
aI01
aI01
aI01
aI01
aI01
aI01
aI01
aI01
aI01
aI01
aI00
aI01
aa(lp81
I01
aI00
aI00
aI00
aI01
aI00
aI00
aI00
aI00
aI00
aI00
aI01
aI00
aI01
aI00
aI00
aI00
aI01
aa(lp82
I01
aI01
aI00
aI01
aI01
aI00
aI00
aI01
aI00
aI01
aI00
aI00
aI00
aI01
aI00
aI01
aI00
aI01
aa(lp83
I01
aI00
aI00
aI00
aI00
aI00
aI01
aI01
aI01
aI01
aI01
aI01
aI00
aI01
aI00
aI01
aI00
aI01
aa(lp84
I01
aI00
aI00
aI00
aI01
aI00
aI00
aI00
aI00
aI00
aI00
aI00
aI00
aI00
aI00
aI01
aI00
aI01
aa(lp85
I01
aI00
aI01
aI00
aI00
aI00
aI00
aI00
aI00
aI00
aI00
aI00
aI00
aI01
aI00
aI00
aI00
aI01
aa(lp86
I01
aI00
aI01
aI00
aI01
aI00
aI01
aI01
aI01
aI01
aI01
aI01
aI00
aI00
aI00
aI00
aI00
aI01
aa(lp87
I01
aI00
aI01
aI00
aI01
aI00
aI00
aI00
aI01
aI00
aI01
aI00
aI00
aI01
aI01
aI00
aI01
aI01
aa(lp88
I01
aI00
aI00
aI00
aI01
aI00
aI01
aI00
aI00
aI00
aI00
aI00
aI00
aI01
aI00
aI00
aI00
aI01
aa(lp89
I01
aI00
aI01
aI01
aI01
aI01
aI01
aI01
aI01
aI01
aI01
aI01
aI01
aI01
aI01
aI01
aI00
aI01
aa(lp90
I01
aI00
aI01
aI00
aI01
aI00
aI00
aI00
aI00
aI00
aI00
aI00
aI00
aI00
aI00
aI01
aI00
aI01
aa(lp91
I01
aI00
aI01
aI00
aI01
aI01
aI01
aI01
aI01
aI01
aI00
aI01
aI01
aI01
aI00
aI01
aI00
aI01
aa(lp92
I01
aI00
aI01
aI00
aI01
aI00
aI00
aI00
aI00
aI01
aI00
aI01
aI00
aI00
aI00
aI00
aI00
aI01
aa(lp93
I01
aI00
aI00
aI00
aI01
aI01
aI00
aI01
aI00
aI00
aI00
aI01
aI01
aI00
aI01
aI01
aI01
aI01
aa(lp94
I01
aI00
aI01
aI00
aI01
aI00
aI00
aI00
aI00
aI01
aI00
aI01
aI00
aI00
aI00
aI00
aI00
aI01
aa(lp95
I01
aI00
aI01
aI00
aI01
aI01
aI01
aI01
aI01
aI01
aI01
aI01
aI01
aI01
aI00
aI01
aI01
aI01
aa(lp96
I01
aI00
aI00
aI00
aI00
aI00
aI00
aI00
aI01
aI00
aI00
aI00
aI00
aI00
aI00
aI00
aI00
aI01
aa(lp97
I01
aI01
aI01
aI01
aI01
aI01
aI01
aI00
aI01
aI01
aI01
aI01
aI01
aI00
aI01
aI01
aI01
aI01
aa(lp98
I01
aI00
aI00
aI00
aI00
aI00
aI00
aI00
aI00
aI00
aI00
aI00
aI00
aI00
aI00
aI00
aI00
aI01
aa(lp99
I01
aI00
aI01
aI01
aI01
aI01
aI01
aI01
aI01
aI01
aI01
aI01
aI01
aI01
aI01
aI01
aI01
aI01
aa(lp100
I01
aI00
aI00
aI00
aI00
aI00
aI00
aI00
aI00
aI00
aI00
aI00
aI00
aI00
aI00
aI00
aI00
aI01
aa(lp101
I01
aI01
aI01
aI01
aI01
aI01
aI01
aI01
aI01
aI01
aI01
aI01
aI01
aI01
aI01
aI01
aI01
aI01
aasg53
I18
sbsS'totalFood'
p102
I60
sS'layoutText'
p103
(lp104
S'%%%%%%%%%%%%%%%%%%%%%%%%%%%%%%%%%%'
p105
aS'%   %  .      .    %.   .%.% % %4%'
p106
aS'% % % %%.%%%% %%%    %%% %.% % %2%'
p107
aS'% % %     ..%      %.%   %   % % %'
p108
aS'% %o% %%%%%%%%%% % %%% %   %   % %'
p109
aS'% %.% %.%.%.%.       % %.%.% % % %'
p110
aS'% %.% %   %.%% %  %  % %%%%% % % %'
p111
aS'% %  .%o%.%.%. %  %% %  . .%.%.% %'
p112
aS'% % %%%   %.% %%  %. % %% %%.% % %'
p113
aS'% % %.%% %% % .%  %% %.%   %%% % %'
p114
aS'% %.%.%. .  % %%  % .%.%.%o%.  % %'
p115
aS'% % % %%%%% %  %  % %%.%   % %.% %'
p116
aS'% % % %.%.% %       .%.%.%.% %.% %'
p117
aS'% %   %   % %%% % %%%%%%%%%% %o% %'
p118
aS'% % %   %   %.%      %..     % % %'
p119
aS'%1% % %.% %%%    %%% %%%%.%% % % %'
p120
aS'%3% % %.%.   .%    .      .  %   %'
p121
aS'%%%%%%%%%%%%%%%%%%%%%%%%%%%%%%%%%%'
p122
asbsS'blueTeamName'
p123
S'Blue'
p124
sS'actions'
p125
(lp126
(I0
S'North'
p127
tp128
a(I1
S'South'
p129
tp130
a(I2
g127
tp131
a(I3
g129
tp132
a(I0
g127
tp133
a(I1
g129
tp134
a(I2
g127
tp135
a(I3
g129
tp136
a(I0
g127
tp137
a(I1
g129
tp138
a(I2
g127
tp139
a(I3
g129
tp140
a(I0
g127
tp141
a(I1
g129
tp142
a(I2
g127
tp143
a(I3
g129
tp144
a(I0
g127
tp145
a(I1
g129
tp146
a(I2
g127
tp147
a(I3
g129
tp148
a(I0
g127
tp149
a(I1
g129
tp150
a(I2
g127
tp151
a(I3
g129
tp152
a(I0
g127
tp153
a(I1
g129
tp154
a(I2
g127
tp155
a(I3
g129
tp156
a(I0
g127
tp157
a(I1
g129
tp158
a(I2
g127
tp159
a(I3
g129
tp160
a(I0
g127
tp161
a(I1
g129
tp162
a(I2
g127
tp163
a(I3
g129
tp164
a(I0
g127
tp165
a(I1
g129
tp166
a(I2
g127
tp167
a(I3
g129
tp168
a(I0
g127
tp169
a(I1
g129
tp170
a(I2
g127
tp171
a(I3
g129
tp172
a(I0
g127
tp173
a(I1
g129
tp174
a(I2
g127
tp175
a(I3
g129
tp176
a(I0
g127
tp177
a(I1
g129
tp178
a(I2
g127
tp179
a(I3
g129
tp180
a(I0
g127
tp181
a(I1
g129
tp182
a(I2
g127
tp183
a(I3
g129
tp184
a(I0
S'East'
p185
tp186
a(I1
S'West'
p187
tp188
a(I2
g127
tp189
a(I3
g129
tp190
a(I0
g185
tp191
a(I1
g187
tp192
a(I2
g185
tp193
a(I3
g187
tp194
a(I0
g129
tp195
a(I1
g127
tp196
a(I2
g185
tp197
a(I3
g187
tp198
a(I0
g129
tp199
a(I1
g127
tp200
a(I2
g129
tp201
a(I3
g127
tp202
a(I0
g129
tp203
a(I1
g127
tp204
a(I2
g129
tp205
a(I3
g127
tp206
a(I0
g129
tp207
a(I1
g127
tp208
a(I2
g129
tp209
a(I3
g127
tp210
a(I0
g129
tp211
a(I1
g127
tp212
a(I2
g129
tp213
a(I3
g127
tp214
a(I0
g129
tp215
a(I1
g127
tp216
a(I2
g129
tp217
a(I3
g127
tp218
a(I0
g185
tp219
a(I1
g187
tp220
a(I2
g129
tp221
a(I3
g127
tp222
a(I0
g185
tp223
a(I1
g187
tp224
a(I2
g129
tp225
a(I3
g187
tp226
a(I0
g127
tp227
a(I1
g129
tp228
a(I2
g129
tp229
a(I3
g187
tp230
a(I0
g127
tp231
a(I1
g129
tp232
a(I2
g129
tp233
a(I3
g129
tp234
a(I0
g127
tp235
a(I1
g129
tp236
a(I2
g129
tp237
a(I3
g129
tp238
a(I0
g127
tp239
a(I1
g129
tp240
a(I2
g129
tp241
a(I3
g129
tp242
a(I0
g127
tp243
a(I1
g129
tp244
a(I2
g129
tp245
a(I3
g129
tp246
a(I0
g127
tp247
a(I1
g129
tp248
a(I2
g185
tp249
a(I3
g129
tp250
a(I0
g185
tp251
a(I1
g187
tp252
a(I2
g185
tp253
a(I3
g129
tp254
a(I0
g185
tp255
a(I1
g187
tp256
a(I2
g127
tp257
a(I3
g187
tp258
a(I0
g185
tp259
a(I1
g187
tp260
a(I2
g127
tp261
a(I3
g187
tp262
a(I0
g185
tp263
a(I1
g187
tp264
a(I2
g127
tp265
a(I3
g187
tp266
a(I0
g185
tp267
a(I1
g187
tp268
a(I2
g127
tp269
a(I3
g127
tp270
a(I0
g185
tp271
a(I1
g187
tp272
a(I2
g129
tp273
a(I3
g127
tp274
a(I0
g185
tp275
a(I1
g187
tp276
a(I2
g129
tp277
a(I3
g187
tp278
a(I0
g185
tp279
a(I1
g187
tp280
a(I2
g129
tp281
a(I3
g187
tp282
a(I0
g185
tp283
a(I1
g187
tp284
a(I2
g129
tp285
a(I3
g187
tp286
a(I0
g185
tp287
a(I1
g187
tp288
a(I2
g129
tp289
a(I3
g185
tp290
a(I0
g185
tp291
a(I1
g187
tp292
a(I2
g129
tp293
a(I3
g185
tp294
a(I0
g185
tp295
a(I1
g187
tp296
a(I2
g129
tp297
a(I3
g185
tp298
a(I0
g129
tp299
a(I1
g127
tp300
a(I2
g127
tp301
a(I3
g185
tp302
a(I0
g185
tp303
a(I1
g187
tp304
a(I2
g127
tp305
a(I3
g185
tp306
a(I0
g185
tp307
a(I1
g187
tp308
a(I2
g185
tp309
a(I3
g185
tp310
a(I0
g185
tp311
a(I1
g187
tp312
a(I2
g185
tp313
a(I3
g129
tp314
a(I0
g127
tp315
a(I1
g129
tp316
a(I2
g129
tp317
a(I3
g129
tp318
a(I0
g129
tp319
a(I1
g127
tp320
a(I2
g129
tp321
a(I3
g187
tp322
a(I0
g129
tp323
a(I1
g127
tp324
a(I2
g127
tp325
a(I3
g187
tp326
a(I0
g127
tp327
a(I1
g129
tp328
a(I2
g127
tp329
a(I3
g187
tp330
a(I0
g127
tp331
a(I1
g129
tp332
a(I2
g127
tp333
a(I3
g127
tp334
a(I0
g185
tp335
a(I1
g187
tp336
a(I2
g185
tp337
a(I3
g127
tp338
a(I0
g185
tp339
a(I1
g187
tp340
a(I2
g185
tp341
a(I3
g185
tp342
a(I0
g185
tp343
a(I1
S'Stop'
p344
tp345
a(I2
g129
tp346
a(I3
g185
tp347
a(I0
g185
tp348
a(I1
g185
tp349
a(I2
g129
tp350
a(I3
g185
tp351
a(I0
g129
tp352
a(I1
g185
tp353
a(I2
g129
tp354
a(I3
g129
tp355
a(I0
g129
tp356
a(I1
g127
tp357
a(I2
g185
tp358
a(I3
g129
tp359
a(I0
g129
tp360
a(I1
g127
tp361
a(I2
g185
tp362
a(I3
g187
tp363
a(I0
g129
tp364
a(I1
g129
tp365
a(I2
g185
tp366
a(I3
g187
tp367
a(I0
g127
tp368
a(I1
g127
tp369
a(I2
g185
tp370
a(I3
g187
tp371
a(I0
g185
tp372
a(I1
g129
tp373
a(I2
g127
tp374
a(I3
g127
tp375
a(I0
g185
tp376
a(I1
g129
tp377
a(I2
g127
tp378
a(I3
g127
tp379
a(I0
g129
tp380
a(I1
g129
tp381
a(I2
g129
tp382
a(I3
g187
tp383
a(I0
g127
tp384
a(I1
g129
tp385
a(I2
g185
tp386
a(I3
g187
tp387
a(I0
g127
tp388
a(I1
g129
tp389
a(I2
g185
tp390
a(I3
g187
tp391
a(I0
g127
tp392
a(I1
g129
tp393
a(I2
g185
tp394
a(I3
g185
tp395
a(I0
g127
tp396
a(I1
g129
tp397
a(I2
g127
tp398
a(I3
g185
tp399
a(I0
g129
tp400
a(I1
g129
tp401
a(I2
g187
tp402
a(I3
g185
tp403
a(I0
g129
tp404
a(I1
g129
tp405
a(I2
g129
tp406
a(I3
g185
tp407
a(I0
g185
tp408
a(I1
g129
tp409
a(I2
g185
tp410
a(I3
g185
tp411
a(I0
g185
tp412
a(I1
g129
tp413
a(I2
g129
tp414
a(I3
g185
tp415
a(I0
g129
tp416
a(I1
g129
tp417
a(I2
g187
tp418
a(I3
g129
tp419
a(I0
g129
tp420
a(I1
g129
tp421
a(I2
g127
tp422
a(I3
g129
tp423
a(I0
g129
tp424
a(I1
g129
tp425
a(I2
g187
tp426
a(I3
g187
tp427
a(I0
g129
tp428
a(I1
g129
tp429
a(I2
g187
tp430
a(I3
g187
tp431
a(I0
g129
tp432
a(I1
g187
tp433
a(I2
g129
tp434
a(I3
g187
tp435
a(I0
g127
tp436
a(I1
g187
tp437
a(I2
g187
tp438
a(I3
g187
tp439
a(I0
g127
tp440
a(I1
g127
tp441
a(I2
g187
tp442
a(I3
g187
tp443
a(I0
g127
tp444
a(I1
g127
tp445
a(I2
g187
tp446
a(I3
g187
tp447
a(I0
g127
tp448
a(I1
g127
tp449
a(I2
g187
tp450
a(I3
g187
tp451
a(I0
g185
tp452
a(I1
g127
tp453
a(I2
g127
tp454
a(I3
g187
tp455
a(I0
g185
tp456
a(I1
g127
tp457
a(I2
g127
tp458
a(I3
g187
tp459
a(I0
g129
tp460
a(I1
g127
tp461
a(I2
g127
tp462
a(I3
g185
tp463
a(I0
g129
tp464
a(I1
g127
tp465
a(I2
g187
tp466
a(I3
g185
tp467
a(I0
g129
tp468
a(I1
g127
tp469
a(I2
g187
tp470
a(I3
g185
tp471
a(I0
g344
tp472
a(I1
g344
tp473
a(I2
g127
tp474
a(I3
g185
tp475
a(I0
g344
tp476
a(I1
g344
tp477
a(I2
g129
tp478
a(I3
g185
tp479
a(I0
g344
tp480
a(I1
g344
tp481
a(I2
g129
tp482
a(I3
g185
tp483
a(I0
g344
tp484
a(I1
g344
tp485
a(I2
g187
tp486
a(I3
g185
tp487
a(I0
g344
tp488
a(I1
g344
tp489
a(I2
g187
tp490
a(I3
g185
tp491
a(I0
g344
tp492
a(I1
g344
tp493
a(I2
g127
tp494
a(I3
g185
tp495
a(I0
g344
tp496
a(I1
g344
tp497
a(I2
g187
tp498
a(I3
g127
tp499
a(I0
g344
tp500
a(I1
g344
tp501
a(I2
g187
tp502
a(I3
g127
tp503
a(I0
g344
tp504
a(I1
g344
tp505
a(I2
g127
tp506
a(I3
g127
tp507
a(I0
g344
tp508
a(I1
g344
tp509
a(I2
g127
tp510
a(I3
g127
tp511
a(I0
g344
tp512
a(I1
g344
tp513
a(I2
g127
tp514
a(I3
g127
tp515
a(I0
g344
tp516
a(I1
g344
tp517
a(I2
g127
tp518
a(I3
g127
tp519
a(I0
g344
tp520
a(I1
g344
tp521
a(I2
g127
tp522
a(I3
g185
tp523
a(I0
g344
tp524
a(I1
g344
tp525
a(I2
g127
tp526
a(I3
g185
tp527
a(I0
g344
tp528
a(I1
g344
tp529
a(I2
g185
tp530
a(I3
g127
tp531
a(I0
g344
tp532
a(I1
g344
tp533
a(I2
g185
tp534
a(I3
g127
tp535
a(I0
g344
tp536
a(I1
g344
tp537
a(I2
g127
tp538
a(I3
g127
tp539
a(I0
g127
tp540
a(I1
g129
tp541
a(I2
g127
tp542
a(I3
g127
tp543
a(I0
g127
tp544
a(I1
g129
tp545
a(I2
g127
tp546
a(I3
g127
tp547
a(I0
g127
tp548
a(I1
g187
tp549
a(I2
g127
tp550
a(I3
g127
tp551
a(I0
g127
tp552
a(I1
g187
tp553
a(I2
g185
tp554
a(I3
g187
tp555
a(I0
g127
tp556
a(I1
g129
tp557
a(I2
g185
tp558
a(I3
g187
tp559
a(I0
g127
tp560
a(I1
g129
tp561
a(I2
g185
tp562
a(I3
g129
tp563
a(I0
g127
tp564
a(I1
g129
tp565
a(I2
g127
tp566
a(I3
g129
tp567
a(I0
g127
tp568
a(I1
g129
tp569
a(I2
g127
tp570
a(I3
g129
tp571
a(I0
g127
tp572
a(I1
g129
tp573
a(I2
g187
tp574
a(I3
g129
tp575
a(I0
g127
tp576
a(I1
g129
tp577
a(I2
g187
tp578
a(I3
g127
tp579
a(I0
g127
tp580
a(I1
g187
tp581
a(I2
g187
tp582
a(I3
g127
tp583
a(I0
g127
tp584
a(I1
g187
tp585
a(I2
g129
tp586
a(I3
g127
tp587
a(I0
g127
tp588
a(I1
g187
tp589
a(I2
g129
tp590
a(I3
g127
tp591
a(I0
g127
tp592
a(I1
g187
tp593
a(I2
g129
tp594
a(I3
g127
tp595
a(I0
g185
tp596
a(I1
g187
tp597
a(I2
g129
tp598
a(I3
g187
tp599
a(I0
g185
tp600
a(I1
g187
tp601
a(I2
g129
tp602
a(I3
g187
tp603
a(I0
g129
tp604
a(I1
g187
tp605
a(I2
g129
tp606
a(I3
g127
tp607
a(I0
g129
tp608
a(I1
g187
tp609
a(I2
g187
tp610
a(I3
g127
tp611
a(I0
g129
tp612
a(I1
g187
tp613
a(I2
g187
tp614
a(I3
g129
tp615
a(I0
g129
tp616
a(I1
g187
tp617
a(I2
g129
tp618
a(I3
g129
tp619
a(I0
g129
tp620
a(I1
g187
tp621
a(I2
g129
tp622
a(I3
g129
tp623
a(I0
g129
tp624
a(I1
g187
tp625
a(I2
g129
tp626
a(I3
g187
tp627
a(I0
g129
tp628
a(I1
g187
tp629
a(I2
g129
tp630
a(I3
g187
tp631
a(I0
g129
tp632
a(I1
g127
tp633
a(I2
g129
tp634
a(I3
g129
tp635
a(I0
g129
tp636
a(I1
g187
tp637
a(I2
g129
tp638
a(I3
g127
tp639
a(I0
g129
tp640
a(I1
g187
tp641
a(I2
g185
tp642
a(I3
g185
tp643
a(I0
g129
tp644
a(I1
g129
tp645
a(I2
g185
tp646
a(I3
g185
tp647
a(I0
g129
tp648
a(I1
g187
tp649
a(I2
g129
tp650
a(I3
g129
tp651
a(I0
g185
tp652
a(I1
g187
tp653
a(I2
g129
tp654
a(I3
g127
tp655
a(I0
g185
tp656
a(I1
g187
tp657
a(I2
g129
tp658
a(I3
g127
tp659
a(I0
g129
tp660
a(I1
g344
tp661
a(I2
g127
tp662
a(I3
g127
tp663
a(I0
g185
tp664
a(I1
g344
tp665
a(I2
g127
tp666
a(I3
g127
tp667
a(I0
g185
tp668
a(I1
g344
tp669
a(I2
g185
tp670
a(I3
g129
tp671
a(I0
g127
tp672
a(I1
g344
tp673
a(I2
g185
tp674
a(I3
g129
tp675
a(I0
g185
tp676
a(I1
g344
tp677
a(I2
g127
tp678
a(I3
g129
tp679
a(I0
g185
tp680
a(I1
g185
tp681
a(I2
g185
tp682
a(I3
g187
tp683
a(I0
g129
tp684
a(I1
g185
tp685
a(I2
g185
tp686
a(I3
g187
tp687
a(I0
g129
tp688
a(I1
g185
tp689
a(I2
g129
tp690
a(I3
g127
tp691
a(I0
g129
tp692
a(I1
g127
tp693
a(I2
g129
tp694
a(I3
g187
tp695
a(I0
g185
tp696
a(I1
g127
tp697
a(I2
g129
tp698
a(I3
g187
tp699
a(I0
g185
tp700
a(I1
g344
tp701
a(I2
g185
tp702
a(I3
g129
tp703
a(I0
g185
tp704
a(I1
g129
tp705
a(I2
g185
tp706
a(I3
g129
tp707
a(I0
g185
tp708
a(I1
g129
tp709
a(I2
g185
tp710
a(I3
g129
tp711
a(I0
g127
tp712
a(I1
g129
tp713
a(I2
g185
tp714
a(I3
g129
tp715
a(I0
g185
tp716
a(I1
g129
tp717
a(I2
g127
tp718
a(I3
g185
tp719
a(I0
g185
tp720
a(I1
g129
tp721
a(I2
g127
tp722
a(I3
g185
tp723
a(I0
g185
tp724
a(I1
g129
tp725
a(I2
g129
tp726
a(I3
g185
tp727
a(I0
g129
tp728
a(I1
g129
tp729
a(I2
g129
tp730
a(I3
g185
tp731
a(I0
g185
tp732
a(I1
g129
tp733
a(I2
g187
tp734
a(I3
g187
tp735
a(I0
g185
tp736
a(I1
g129
tp737
a(I2
g187
tp738
a(I3
g187
tp739
a(I0
g185
tp740
a(I1
g129
tp741
a(I2
g187
tp742
a(I3
g187
tp743
a(I0
g185
tp744
a(I1
g129
tp745
a(I2
g187
tp746
a(I3
g187
tp747
a(I0
g185
tp748
a(I1
g129
tp749
a(I2
g127
tp750
a(I3
g127
tp751
a(I0
g185
tp752
a(I1
g129
tp753
a(I2
g127
tp754
a(I3
g127
tp755
a(I0
g185
tp756
a(I1
g129
tp757
a(I2
g127
tp758
a(I3
g127
tp759
a(I0
g185
tp760
a(I1
g129
tp761
a(I2
g187
tp762
a(I3
g127
tp763
a(I0
g185
tp764
a(I1
g129
tp765
a(I2
g187
tp766
a(I3
g185
tp767
a(I0
g185
tp768
a(I1
g187
tp769
a(I2
g129
tp770
a(I3
g185
tp771
a(I0
g187
tp772
a(I1
g187
tp773
a(I2
g187
tp774
a(I3
g129
tp775
a(I0
g127
tp776
a(I1
g127
tp777
a(I2
g187
tp778
a(I3
g185
tp779
a(I0
g127
tp780
a(I1
g127
tp781
a(I2
g129
tp782
a(I3
g185
tp783
a(I0
g187
tp784
a(I1
g127
tp785
a(I2
g129
tp786
a(I3
g129
tp787
a(I0
g187
tp788
a(I1
g127
tp789
a(I2
g127
tp790
a(I3
g127
tp791
a(I0
g187
tp792
a(I1
g127
tp793
a(I2
g127
tp794
a(I3
g187
tp795
a(I0
g185
tp796
a(I1
g127
tp797
a(I2
g127
tp798
a(I3
g187
tp799
a(I0
g185
tp800
a(I1
g187
tp801
a(I2
g127
tp802
a(I3
g127
tp803
a(I0
g185
tp804
a(I1
g187
tp805
a(I2
g127
tp806
a(I3
g187
tp807
a(I0
g185
tp808
a(I1
g129
tp809
a(I2
g127
tp810
a(I3
g185
tp811
a(I0
g185
tp812
a(I1
g129
tp813
a(I2
g127
tp814
a(I3
g129
tp815
a(I0
g185
tp816
a(I1
g129
tp817
a(I2
g129
tp818
a(I3
g185
tp819
a(I0
g344
tp820
a(I1
g344
tp821
a(I2
g129
tp822
a(I3
g185
tp823
a(I0
g344
tp824
a(I1
g344
tp825
a(I2
g129
tp826
a(I3
g127
tp827
a(I0
g344
tp828
a(I1
g344
tp829
a(I2
g129
tp830
a(I3
g185
tp831
a(I0
g344
tp832
a(I1
g344
tp833
a(I2
g129
tp834
a(I3
g185
tp835
a(I0
g344
tp836
a(I1
g344
tp837
a(I2
g185
tp838
a(I3
g129
tp839
a(I0
g344
tp840
a(I1
g344
tp841
a(I2
g185
tp842
a(I3
g185
tp843
a(I0
g344
tp844
a(I1
g344
tp845
a(I2
g129
tp846
a(I3
g185
tp847
a(I0
g344
tp848
a(I1
g344
tp849
a(I2
g129
tp850
a(I3
g129
tp851
a(I0
g344
tp852
a(I1
g344
tp853
a(I2
g127
tp854
a(I3
g129
tp855
a(I0
g344
tp856
a(I1
g344
tp857
a(I2
g127
tp858
a(I3
g129
tp859
a(I0
g344
tp860
a(I1
g344
tp861
a(I2
g127
tp862
a(I3
g129
tp863
a(I0
g344
tp864
a(I1
g344
tp865
a(I2
g185
tp866
a(I3
g129
tp867
a(I0
g344
tp868
a(I1
g344
tp869
a(I2
g185
tp870
a(I3
g129
tp871
a(I0
g344
tp872
a(I1
g344
tp873
a(I2
g127
tp874
a(I3
g187
tp875
a(I0
g344
tp876
a(I1
g344
tp877
a(I2
g129
tp878
a(I3
g187
tp879
a(I0
g344
tp880
a(I1
g344
tp881
a(I2
g129
tp882
a(I3
g129
tp883
a(I0
g344
tp884
a(I1
g344
tp885
a(I2
g185
tp886
a(I3
g129
tp887
a(I0
g344
tp888
a(I1
g344
tp889
a(I2
g185
tp890
a(I3
g129
tp891
a(I0
g344
tp892
a(I1
g344
tp893
a(I2
g127
tp894
a(I3
g129
tp895
a(I0
g127
tp896
a(I1
g129
tp897
a(I2
g127
tp898
a(I3
g187
tp899
a(I0
g127
tp900
a(I1
g187
tp901
a(I2
g127
tp902
a(I3
g187
tp903
a(I0
g127
tp904
a(I1
g187
tp905
a(I2
g127
tp906
a(I3
g187
tp907
a(I0
g127
tp908
a(I1
g187
tp909
a(I2
g127
tp910
a(I3
g129
tp911
a(I0
g127
tp912
a(I1
g129
tp913
a(I2
g127
tp914
a(I3
g129
tp915
a(I0
g127
tp916
a(I1
g129
tp917
a(I2
g127
tp918
a(I3
g185
tp919
a(I0
g127
tp920
a(I1
g187
tp921
a(I2
g127
tp922
a(I3
g185
tp923
a(I0
g127
tp924
a(I1
g187
tp925
a(I2
g127
tp926
a(I3
g185
tp927
a(I0
g127
tp928
a(I1
g187
tp929
a(I2
g129
tp930
a(I3
g127
tp931
a(I0
g127
tp932
a(I1
g187
tp933
a(I2
g129
tp934
a(I3
g127
tp935
a(I0
g127
tp936
a(I1
g187
tp937
a(I2
g129
tp938
a(I3
g127
tp939
a(I0
g127
tp940
a(I1
g187
tp941
a(I2
g129
tp942
a(I3
g127
tp943
a(I0
g127
tp944
a(I1
g187
tp945
a(I2
g129
tp946
a(I3
g127
tp947
a(I0
g127
tp948
a(I1
g187
tp949
a(I2
g187
tp950
a(I3
g127
tp951
a(I0
g185
tp952
a(I1
g187
tp953
a(I2
g187
tp954
a(I3
g185
tp955
a(I0
g185
tp956
a(I1
g127
tp957
a(I2
g187
tp958
a(I3
g185
tp959
a(I0
g129
tp960
a(I1
g187
tp961
a(I2
g127
tp962
a(I3
g127
tp963
a(I0
g129
tp964
a(I1
g187
tp965
a(I2
g127
tp966
a(I3
g127
tp967
a(I0
g129
tp968
a(I1
g187
tp969
a(I2
g185
tp970
a(I3
g127
tp971
a(I0
g129
tp972
a(I1
g129
tp973
a(I2
g127
tp974
a(I3
g127
tp975
a(I0
g129
tp976
a(I1
g187
tp977
a(I2
g127
tp978
a(I3
g127
tp979
a(I0
g129
tp980
a(I1
g187
tp981
a(I2
g187
tp982
a(I3
g127
tp983
a(I0
g185
tp984
a(I1
g187
tp985
a(I2
g187
tp986
a(I3
g187
tp987
a(I0
g185
tp988
a(I1
g344
tp989
a(I2
g129
tp990
a(I3
g187
tp991
a(I0
g127
tp992
a(I1
g344
tp993
a(I2
g129
tp994
a(I3
g127
tp995
a(I0
g127
tp996
a(I1
g344
tp997
a(I2
g185
tp998
a(I3
g127
tp999
a(I0
g127
tp1000
a(I1
g344
tp1001
a(I2
g129
tp1002
a(I3
g127
tp1003
a(I0
g127
tp1004
a(I1
g344
tp1005
a(I2
g129
tp1006
a(I3
g129
tp1007
a(I0
g185
tp1008
a(I1
g344
tp1009
a(I2
g185
tp1010
a(I3
g129
tp1011
a(I0
g185
tp1012
a(I1
g344
tp1013
a(I2
g185
tp1014
a(I3
g187
tp1015
a(I0
g185
tp1016
a(I1
g344
tp1017
a(I2
g185
tp1018
a(I3
g187
tp1019
a(I0
g127
tp1020
a(I1
g344
tp1021
a(I2
g127
tp1022
a(I3
g127
tp1023
a(I0
g127
tp1024
a(I1
g344
tp1025
a(I2
g127
tp1026
a(I3
g127
tp1027
a(I0
g185
tp1028
a(I1
g344
tp1029
a(I2
g127
tp1030
a(I3
g129
tp1031
a(I0
g185
tp1032
a(I1
g344
tp1033
a(I2
g127
tp1034
a(I3
g129
tp1035
a(I0
g185
tp1036
a(I1
g344
tp1037
a(I2
g127
tp1038
a(I3
g185
tp1039
a(I0
g185
tp1040
a(I1
g344
tp1041
a(I2
g129
tp1042
a(I3
g185
tp1043
a(I0
g185
tp1044
a(I1
g344
tp1045
a(I2
g129
tp1046
a(I3
g129
tp1047
a(I0
g129
tp1048
a(I1
g344
tp1049
a(I2
g129
tp1050
a(I3
g185
tp1051
a(I0
g129
tp1052
a(I1
g344
tp1053
a(I2
g129
tp1054
a(I3
g185
tp1055
a(I0
g185
tp1056
a(I1
g344
tp1057
a(I2
g129
tp1058
a(I3
g129
tp1059
a(I0
g185
tp1060
a(I1
g344
tp1061
a(I2
g187
tp1062
a(I3
g129
tp1063
a(I0
g185
tp1064
a(I1
g344
tp1065
a(I2
g187
tp1066
a(I3
g129
tp1067
a(I0
g129
tp1068
a(I1
g344
tp1069
a(I2
g187
tp1070
a(I3
g129
tp1071
a(I0
g129
tp1072
a(I1
g344
tp1073
a(I2
g187
tp1074
a(I3
g129
tp1075
a(I0
g185
tp1076
a(I1
g344
tp1077
a(I2
g185
tp1078
a(I3
g129
tp1079
a(I0
g185
tp1080
a(I1
g344
tp1081
a(I2
g127
tp1082
a(I3
g129
tp1083
a(I0
g185
tp1084
a(I1
g344
tp1085
a(I2
g127
tp1086
a(I3
g129
tp1087
a(I0
g185
tp1088
a(I1
g344
tp1089
a(I2
g185
tp1090
a(I3
g129
tp1091
a(I0
g129
tp1092
a(I1
g344
tp1093
a(I2
g127
tp1094
a(I3
g129
tp1095
a(I0
g129
tp1096
a(I1
g344
tp1097
a(I2
g127
tp1098
a(I3
g129
tp1099
a(I0
g129
tp1100
a(I1
g344
tp1101
a(I2
g127
tp1102
a(I3
g129
tp1103
a(I0
g187
tp1104
a(I1
g344
tp1105
a(I2
g129
tp1106
a(I3
g185
tp1107
a(I0
g185
tp1108
a(I1
g344
tp1109
a(I2
g129
tp1110
a(I3
g185
tp1111
a(I0
g129
tp1112
a(I1
g344
tp1113
a(I2
g129
tp1114
a(I3
g127
tp1115
a(I0
g129
tp1116
a(I1
g344
tp1117
a(I2
g187
tp1118
a(I3
g127
tp1119
a(I0
g187
tp1120
a(I1
g344
tp1121
a(I2
g187
tp1122
a(I3
g127
tp1123
a(I0
g129
tp1124
a(I1
g344
tp1125
a(I2
g127
tp1126
a(I3
g127
tp1127
a(I0
g129
tp1128
a(I1
g344
tp1129
a(I2
g127
tp1130
a(I3
g127
tp1131
a(I0
g185
tp1132
a(I1
g187
tp1133
a(I2
g127
tp1134
a(I3
g127
tp1135
a(I0
g187
tp1136
a(I1
g185
tp1137
a(I2
g129
tp1138
a(I3
g127
tp1139
a(I0
g187
tp1140
a(I1
g185
tp1141
a(I2
g185
tp1142
a(I3
g127
tp1143
a(I0
g187
tp1144
a(I1
g185
tp1145
a(I2
g185
tp1146
a(I3
g127
tp1147
a(I0
g129
tp1148
a(I1
g185
tp1149
a(I2
g129
tp1150
a(I3
g127
tp1151
a(I0
g129
tp1152
a(I1
g127
tp1153
a(I2
g129
tp1154
a(I3
g129
tp1155
a(I0
g185
tp1156
a(I1
g185
tp1157
a(I2
g187
tp1158
a(I3
g129
tp1159
a(I0
g185
tp1160
a(I1
g185
tp1161
a(I2
g129
tp1162
a(I3
g129
tp1163
a(I0
g185
tp1164
a(I1
g129
tp1165
a(I2
g129
tp1166
a(I3
g129
tp1167
a(I0
g129
tp1168
a(I1
g185
tp1169
a(I2
g185
tp1170
a(I3
g129
tp1171
a(I0
g129
tp1172
a(I1
g185
tp1173
a(I2
g185
tp1174
a(I3
g129
tp1175
a(I0
g185
tp1176
a(I1
g185
tp1177
a(I2
g185
tp1178
a(I3
g129
tp1179
a(I0
g185
tp1180
a(I1
g185
tp1181
a(I2
g129
tp1182
a(I3
g129
tp1183
a(I0
g185
tp1184
a(I1
g185
tp1185
a(I2
g129
tp1186
a(I3
g129
tp1187
a(I0
g185
tp1188
a(I1
g185
tp1189
a(I2
g129
tp1190
a(I3
g129
tp1191
a(I0
g185
tp1192
a(I1
g185
tp1193
a(I2
g129
tp1194
a(I3
g187
tp1195
a(I0
g185
tp1196
a(I1
g185
tp1197
a(I2
g187
tp1198
a(I3
g187
tp1199
a(I0
g185
tp1200
a(I1
g185
tp1201
a(I2
g187
tp1202
a(I3
g127
tp1203
a(I0
g185
tp1204
a(I1
g185
tp1205
a(I2
g127
tp1206
a(I3
g127
tp1207
a(I0
g127
tp1208
a(I1
g185
tp1209
a(I2
g187
tp1210
a(I3
g127
tp1211
a(I0
g127
tp1212
a(I1
g185
tp1213
a(I2
g187
tp1214
a(I3
g127
tp1215
a(I0
g187
tp1216
a(I1
g185
tp1217
a(I2
g129
tp1218
a(I3
g127
tp1219
a(I0
g187
tp1220
a(I1
g127
tp1221
a(I2
g187
tp1222
a(I3
g127
tp1223
a(I0
g185
tp1224
a(I1
g127
tp1225
a(I2
g187
tp1226
a(I3
g187
tp1227
a(I0
g344
tp1228
a(I1
g344
tp1229
a(I2
g129
tp1230
a(I3
g187
tp1231
a(I0
g344
tp1232
a(I1
g344
tp1233
a(I2
g129
tp1234
a(I3
g129
tp1235
a(I0
g344
tp1236
a(I1
g344
tp1237
a(I2
g127
tp1238
a(I3
g129
tp1239
a(I0
g344
tp1240
a(I1
g344
tp1241
a(I2
g127
tp1242
a(I3
g129
tp1243
a(I0
g344
tp1244
a(I1
g344
tp1245
a(I2
g127
tp1246
a(I3
g129
tp1247
a(I0
g344
tp1248
a(I1
g344
tp1249
a(I2
g127
tp1250
a(I3
g187
tp1251
a(I0
g127
tp1252
a(I1
g129
tp1253
a(I2
g127
tp1254
a(I3
g187
tp1255
a(I0
g127
tp1256
a(I1
g129
tp1257
a(I2
g127
tp1258
a(I3
g187
tp1259
a(I0
g127
tp1260
a(I1
g187
tp1261
a(I2
g127
tp1262
a(I3
g129
tp1263
a(I0
g127
tp1264
a(I1
g187
tp1265
a(I2
g129
tp1266
a(I3
g129
tp1267
a(I0
g127
tp1268
a(I1
g187
tp1269
a(I2
g129
tp1270
a(I3
g185
tp1271
a(I0
g127
tp1272
a(I1
g187
tp1273
a(I2
g129
tp1274
a(I3
g185
tp1275
a(I0
g127
tp1276
a(I1
g187
tp1277
a(I2
g129
tp1278
a(I3
g185
tp1279
a(I0
g127
tp1280
a(I1
g187
tp1281
a(I2
g187
tp1282
a(I3
g127
tp1283
a(I0
g127
tp1284
a(I1
g187
tp1285
a(I2
g187
tp1286
a(I3
g127
tp1287
a(I0
g127
tp1288
a(I1
g187
tp1289
a(I2
g129
tp1290
a(I3
g127
tp1291
a(I0
g127
tp1292
a(I1
g127
tp1293
a(I2
g129
tp1294
a(I3
g127
tp1295
a(I0
g127
tp1296
a(I1
g127
tp1297
a(I2
g129
tp1298
a(I3
g127
tp1299
a(I0
g127
tp1300
a(I1
g187
tp1301
a(I2
g127
tp1302
a(I3
g127
tp1303
a(I0
g127
tp1304
a(I1
g187
tp1305
a(I2
g127
tp1306
a(I3
g185
tp1307
a(I0
g185
tp1308
a(I1
g187
tp1309
a(I2
g127
tp1310
a(I3
g185
tp1311
a(I0
g185
tp1312
a(I1
g187
tp1313
a(I2
g185
tp1314
a(I3
g127
tp1315
a(I0
g129
tp1316
a(I1
g187
tp1317
a(I2
g185
tp1318
a(I3
g127
tp1319
a(I0
g129
tp1320
a(I1
g127
tp1321
a(I2
g127
tp1322
a(I3
g127
tp1323
a(I0
g129
tp1324
a(I1
g127
tp1325
a(I2
g127
tp1326
a(I3
g127
tp1327
a(I0
g129
tp1328
a(I1
g187
tp1329
a(I2
g127
tp1330
a(I3
g127
tp1331
asS'length'
p1332
I1200
sS'agents'
p1333
(lp1334
(igame
Agent
p1335
(dp1336
S'index'
p1337
I0
sba(igame
Agent
p1338
(dp1339
g1337
I0
sba(igame
Agent
p1340
(dp1341
g1337
I0
sba(igame
Agent
p1342
(dp1343
g1337
I0
sbasS'redTeamName'
p1344
S'Red'
p1345
s.